
build/add10:     file format elf64-littleriscv


Disassembly of section .text:

0000000052000000 <_start>:
    52000000:	838a                	mv	t2,sp
    52000002:	52500137          	lui	sp,0x52500
    52000006:	1141                	addi	sp,sp,-16 # 524ffff0 <__BSS_END__+0x4ffd08>
    52000008:	e01e                	sd	t2,0(sp)
    5200000a:	e406                	sd	ra,8(sp)
    5200000c:	00000297          	auipc	t0,0x0
    52000010:	2c828293          	addi	t0,t0,712 # 520002d4 <__DATA_BEGIN__>
    52000014:	00000317          	auipc	t1,0x0
    52000018:	2d430313          	addi	t1,t1,724 # 520002e8 <__BSS_END__>

000000005200001c <clear_bss>:
    5200001c:	0002a023          	sw	zero,0(t0)
    52000020:	0291                	addi	t0,t0,4
    52000022:	fe62ede3          	bltu	t0,t1,5200001c <clear_bss>
    52000026:	018000ef          	jal	5200003e <main>
    5200002a:	6382                	ld	t2,0(sp)
    5200002c:	60a2                	ld	ra,8(sp)
    5200002e:	0141                	addi	sp,sp,16
    52000030:	811e                	mv	sp,t2
    52000032:	00008067          	ret

0000000052000036 <loop>:
    52000036:	10500073          	wfi
    5200003a:	bff5                	j	52000036 <loop>
    5200003c:	0001                	nop

000000005200003e <main>:
    5200003e:	540006b7          	lui	a3,0x54000
    52000042:	4288                	lw	a0,0(a3)
    52000044:	1141                	addi	sp,sp,-16
    52000046:	e406                	sd	ra,8(sp)
    52000048:	2529                	addiw	a0,a0,10
    5200004a:	4781                	li	a5,0
    5200004c:	00000717          	auipc	a4,0x0
    52000050:	28c70713          	addi	a4,a4,652 # 520002d8 <buf>
    52000054:	4601                	li	a2,0
    52000056:	45a9                	li	a1,10
    52000058:	c288                	sw	a0,0(a3)
    5200005a:	4681                	li	a3,0
    5200005c:	04e000ef          	jal	520000aa <my_itoa.part.0>
    52000060:	00000517          	auipc	a0,0x0
    52000064:	1a850513          	addi	a0,a0,424 # 52000208 <my_atoi+0x88>
    52000068:	02e000ef          	jal	52000096 <bios_putstr>
    5200006c:	00000517          	auipc	a0,0x0
    52000070:	26c50513          	addi	a0,a0,620 # 520002d8 <buf>
    52000074:	022000ef          	jal	52000096 <bios_putstr>
    52000078:	520007b7          	lui	a5,0x52000
    5200007c:	f0878793          	addi	a5,a5,-248 # 51ffff08 <_start-0xf8>
    52000080:	639c                	ld	a5,0(a5)
    52000082:	4701                	li	a4,0
    52000084:	4681                	li	a3,0
    52000086:	4601                	li	a2,0
    52000088:	4581                	li	a1,0
    5200008a:	4529                	li	a0,10
    5200008c:	9782                	jalr	a5
    5200008e:	60a2                	ld	ra,8(sp)
    52000090:	4501                	li	a0,0
    52000092:	0141                	addi	sp,sp,16
    52000094:	8082                	ret

0000000052000096 <bios_putstr>:
    52000096:	520007b7          	lui	a5,0x52000
    5200009a:	f0078793          	addi	a5,a5,-256 # 51ffff00 <_start-0x100>
    5200009e:	639c                	ld	a5,0(a5)
    520000a0:	4701                	li	a4,0
    520000a2:	4681                	li	a3,0
    520000a4:	4601                	li	a2,0
    520000a6:	4581                	li	a1,0
    520000a8:	8782                	jr	a5

00000000520000aa <my_itoa.part.0>:
    520000aa:	0c055363          	bgez	a0,52000170 <my_itoa.part.0+0xc6>
    520000ae:	e2e9                	bnez	a3,52000170 <my_itoa.part.0+0xc6>
    520000b0:	40a00533          	neg	a0,a0
    520000b4:	4305                	li	t1,1
    520000b6:	06100893          	li	a7,97
    520000ba:	c219                	beqz	a2,520000c0 <my_itoa.part.0+0x16>
    520000bc:	04100893          	li	a7,65
    520000c0:	1582                	slli	a1,a1,0x20
    520000c2:	9181                	srli	a1,a1,0x20
    520000c4:	38d9                	addiw	a7,a7,-10
    520000c6:	863a                	mv	a2,a4
    520000c8:	4825                	li	a6,9
    520000ca:	a811                	j	520000de <my_itoa.part.0+0x34>
    520000cc:	02b54533          	div	a0,a0,a1
    520000d0:	0306869b          	addiw	a3,a3,48 # 54000030 <__BSS_END__+0x1fffd48>
    520000d4:	00d60023          	sb	a3,0(a2)
    520000d8:	0605                	addi	a2,a2,1
    520000da:	00a05f63          	blez	a0,520000f8 <my_itoa.part.0+0x4e>
    520000de:	02b566b3          	rem	a3,a0,a1
    520000e2:	fed855e3          	bge	a6,a3,520000cc <my_itoa.part.0+0x22>
    520000e6:	02b54533          	div	a0,a0,a1
    520000ea:	00d886bb          	addw	a3,a7,a3
    520000ee:	00d60023          	sb	a3,0(a2)
    520000f2:	0605                	addi	a2,a2,1
    520000f4:	fea045e3          	bgtz	a0,520000de <my_itoa.part.0+0x34>
    520000f8:	40e606bb          	subw	a3,a2,a4
    520000fc:	02f6f463          	bgeu	a3,a5,52000124 <my_itoa.part.0+0x7a>
    52000100:	fff7859b          	addiw	a1,a5,-1
    52000104:	9d95                	subw	a1,a1,a3
    52000106:	1582                	slli	a1,a1,0x20
    52000108:	9181                	srli	a1,a1,0x20
    5200010a:	00158693          	addi	a3,a1,1
    5200010e:	87b2                	mv	a5,a2
    52000110:	03000513          	li	a0,48
    52000114:	96b2                	add	a3,a3,a2
    52000116:	0785                	addi	a5,a5,1
    52000118:	fea78fa3          	sb	a0,-1(a5)
    5200011c:	fed79de3          	bne	a5,a3,52000116 <my_itoa.part.0+0x6c>
    52000120:	0605                	addi	a2,a2,1
    52000122:	962e                	add	a2,a2,a1
    52000124:	00030763          	beqz	t1,52000132 <my_itoa.part.0+0x88>
    52000128:	02d00793          	li	a5,45
    5200012c:	00f60023          	sb	a5,0(a2)
    52000130:	0605                	addi	a2,a2,1
    52000132:	40e6053b          	subw	a0,a2,a4
    52000136:	00060023          	sb	zero,0(a2)
    5200013a:	0015589b          	srliw	a7,a0,0x1
    5200013e:	02088863          	beqz	a7,5200016e <my_itoa.part.0+0xc4>
    52000142:	fff7081b          	addiw	a6,a4,-1
    52000146:	98ba                	add	a7,a7,a4
    52000148:	00a8083b          	addw	a6,a6,a0
    5200014c:	86ba                	mv	a3,a4
    5200014e:	40d807bb          	subw	a5,a6,a3
    52000152:	1782                	slli	a5,a5,0x20
    52000154:	9381                	srli	a5,a5,0x20
    52000156:	97ba                	add	a5,a5,a4
    52000158:	0007c583          	lbu	a1,0(a5)
    5200015c:	0006c603          	lbu	a2,0(a3)
    52000160:	0685                	addi	a3,a3,1
    52000162:	feb68fa3          	sb	a1,-1(a3)
    52000166:	00c78023          	sb	a2,0(a5)
    5200016a:	ff1692e3          	bne	a3,a7,5200014e <my_itoa.part.0+0xa4>
    5200016e:	8082                	ret
    52000170:	4301                	li	t1,0
    52000172:	b791                	j	520000b6 <my_itoa.part.0+0xc>

0000000052000174 <my_itoa>:
    52000174:	4841                	li	a6,16
    52000176:	00b86363          	bltu	a6,a1,5200017c <my_itoa+0x8>
    5200017a:	bf05                	j	520000aa <my_itoa.part.0>
    5200017c:	4501                	li	a0,0
    5200017e:	8082                	ret

0000000052000180 <my_atoi>:
    52000180:	00054783          	lbu	a5,0(a0)
    52000184:	02000713          	li	a4,32
    52000188:	00e79763          	bne	a5,a4,52000196 <my_atoi+0x16>
    5200018c:	00154783          	lbu	a5,1(a0)
    52000190:	0505                	addi	a0,a0,1
    52000192:	fee78de3          	beq	a5,a4,5200018c <my_atoi+0xc>
    52000196:	02d00713          	li	a4,45
    5200019a:	06e78163          	beq	a5,a4,520001fc <my_atoi+0x7c>
    5200019e:	02b00713          	li	a4,43
    520001a2:	4805                	li	a6,1
    520001a4:	02e78f63          	beq	a5,a4,520001e2 <my_atoi+0x62>
    520001a8:	00054603          	lbu	a2,0(a0)
    520001ac:	45a5                	li	a1,9
    520001ae:	4701                	li	a4,0
    520001b0:	fd06069b          	addiw	a3,a2,-48
    520001b4:	0ff6f793          	zext.b	a5,a3
    520001b8:	04f5e063          	bltu	a1,a5,520001f8 <my_atoi+0x78>
    520001bc:	0027179b          	slliw	a5,a4,0x2
    520001c0:	00154603          	lbu	a2,1(a0)
    520001c4:	9fb9                	addw	a5,a5,a4
    520001c6:	0017979b          	slliw	a5,a5,0x1
    520001ca:	00f6873b          	addw	a4,a3,a5
    520001ce:	fd06069b          	addiw	a3,a2,-48
    520001d2:	0ff6f793          	zext.b	a5,a3
    520001d6:	0505                	addi	a0,a0,1
    520001d8:	fef5f2e3          	bgeu	a1,a5,520001bc <my_atoi+0x3c>
    520001dc:	0307053b          	mulw	a0,a4,a6
    520001e0:	8082                	ret
    520001e2:	9542                	add	a0,a0,a6
    520001e4:	00054603          	lbu	a2,0(a0)
    520001e8:	45a5                	li	a1,9
    520001ea:	4701                	li	a4,0
    520001ec:	fd06069b          	addiw	a3,a2,-48
    520001f0:	0ff6f793          	zext.b	a5,a3
    520001f4:	fcf5f4e3          	bgeu	a1,a5,520001bc <my_atoi+0x3c>
    520001f8:	4501                	li	a0,0
    520001fa:	8082                	ret
    520001fc:	0505                	addi	a0,a0,1
    520001fe:	587d                	li	a6,-1
    52000200:	b765                	j	520001a8 <my_atoi+0x28>
