
build/bss:     file format elf64-littleriscv


Disassembly of section .text:

0000000052020000 <_start>:
    52020000:	7119                	addi	sp,sp,-128
    52020002:	e016                	sd	t0,0(sp)
    52020004:	e41a                	sd	t1,8(sp)
    52020006:	e81e                	sd	t2,16(sp)
    52020008:	ec72                	sd	t3,24(sp)
    5202000a:	f076                	sd	t4,32(sp)
    5202000c:	f47a                	sd	t5,40(sp)
    5202000e:	f87e                	sd	t6,48(sp)
    52020010:	fc06                	sd	ra,56(sp)
    52020012:	e0aa                	sd	a0,64(sp)
    52020014:	e4ae                	sd	a1,72(sp)
    52020016:	e8b2                	sd	a2,80(sp)
    52020018:	ecb6                	sd	a3,88(sp)
    5202001a:	f0ba                	sd	a4,96(sp)
    5202001c:	f4be                	sd	a5,104(sp)
    5202001e:	f8c2                	sd	a6,112(sp)
    52020020:	fcc6                	sd	a7,120(sp)
    52020022:	00000517          	auipc	a0,0x0
    52020026:	24a50513          	addi	a0,a0,586 # 5202026c <__DATA_BEGIN__>
    5202002a:	00000597          	auipc	a1,0x0
    5202002e:	27e58593          	addi	a1,a1,638 # 520202a8 <__BSS_END__>
    52020032:	00b55763          	bge	a0,a1,52020040 <EMPBSS>

0000000052020036 <FLAT>:
    52020036:	00050023          	sb	zero,0(a0)
    5202003a:	0505                	addi	a0,a0,1
    5202003c:	feb54de3          	blt	a0,a1,52020036 <FLAT>

0000000052020040 <EMPBSS>:
    52020040:	0b8000ef          	jal	520200f8 <main>
    52020044:	78e6                	ld	a7,120(sp)
    52020046:	7846                	ld	a6,112(sp)
    52020048:	77a6                	ld	a5,104(sp)
    5202004a:	7706                	ld	a4,96(sp)
    5202004c:	66e6                	ld	a3,88(sp)
    5202004e:	6646                	ld	a2,80(sp)
    52020050:	65a6                	ld	a1,72(sp)
    52020052:	6506                	ld	a0,64(sp)
    52020054:	70e2                	ld	ra,56(sp)
    52020056:	7fc2                	ld	t6,48(sp)
    52020058:	7f22                	ld	t5,40(sp)
    5202005a:	7e82                	ld	t4,32(sp)
    5202005c:	6e62                	ld	t3,24(sp)
    5202005e:	63c2                	ld	t2,16(sp)
    52020060:	6322                	ld	t1,8(sp)
    52020062:	6282                	ld	t0,0(sp)
    52020064:	6109                	addi	sp,sp,128
    52020066:	8082                	ret

0000000052020068 <loop>:
    52020068:	10500073          	wfi
    5202006c:	bff5                	j	52020068 <loop>

000000005202006e <call_jmptab>:
    5202006e:	715d                	addi	sp,sp,-80
    52020070:	e486                	sd	ra,72(sp)
    52020072:	e0a2                	sd	s0,64(sp)
    52020074:	0880                	addi	s0,sp,80
    52020076:	fca43c23          	sd	a0,-40(s0)
    5202007a:	fcb43823          	sd	a1,-48(s0)
    5202007e:	fcc43423          	sd	a2,-56(s0)
    52020082:	fcd43023          	sd	a3,-64(s0)
    52020086:	fae43c23          	sd	a4,-72(s0)
    5202008a:	faf43823          	sd	a5,-80(s0)
    5202008e:	fd843703          	ld	a4,-40(s0)
    52020092:	0a4007b7          	lui	a5,0xa400
    52020096:	1781                	addi	a5,a5,-32 # a3fffe0 <_start-0x47c20020>
    52020098:	97ba                	add	a5,a5,a4
    5202009a:	078e                	slli	a5,a5,0x3
    5202009c:	639c                	ld	a5,0(a5)
    5202009e:	fef43423          	sd	a5,-24(s0)
    520200a2:	fe843783          	ld	a5,-24(s0)
    520200a6:	fef43023          	sd	a5,-32(s0)
    520200aa:	fe043783          	ld	a5,-32(s0)
    520200ae:	fb043703          	ld	a4,-80(s0)
    520200b2:	fb843683          	ld	a3,-72(s0)
    520200b6:	fc043603          	ld	a2,-64(s0)
    520200ba:	fc843583          	ld	a1,-56(s0)
    520200be:	fd043503          	ld	a0,-48(s0)
    520200c2:	9782                	jalr	a5
    520200c4:	87aa                	mv	a5,a0
    520200c6:	853e                	mv	a0,a5
    520200c8:	60a6                	ld	ra,72(sp)
    520200ca:	6406                	ld	s0,64(sp)
    520200cc:	6161                	addi	sp,sp,80
    520200ce:	8082                	ret

00000000520200d0 <bios_putstr>:
    520200d0:	1101                	addi	sp,sp,-32
    520200d2:	ec06                	sd	ra,24(sp)
    520200d4:	e822                	sd	s0,16(sp)
    520200d6:	1000                	addi	s0,sp,32
    520200d8:	fea43423          	sd	a0,-24(s0)
    520200dc:	fe843583          	ld	a1,-24(s0)
    520200e0:	4781                	li	a5,0
    520200e2:	4701                	li	a4,0
    520200e4:	4681                	li	a3,0
    520200e6:	4601                	li	a2,0
    520200e8:	4501                	li	a0,0
    520200ea:	f85ff0ef          	jal	5202006e <call_jmptab>
    520200ee:	0001                	nop
    520200f0:	60e2                	ld	ra,24(sp)
    520200f2:	6442                	ld	s0,16(sp)
    520200f4:	6105                	addi	sp,sp,32
    520200f6:	8082                	ret

00000000520200f8 <main>:
    520200f8:	1101                	addi	sp,sp,-32
    520200fa:	ec06                	sd	ra,24(sp)
    520200fc:	e822                	sd	s0,16(sp)
    520200fe:	1000                	addi	s0,sp,32
    52020100:	4785                	li	a5,1
    52020102:	fef42623          	sw	a5,-20(s0)
    52020106:	fe042423          	sw	zero,-24(s0)
    5202010a:	a01d                	j	52020130 <main+0x38>
    5202010c:	00000717          	auipc	a4,0x0
    52020110:	16470713          	addi	a4,a4,356 # 52020270 <buf>
    52020114:	fe842783          	lw	a5,-24(s0)
    52020118:	97ba                	add	a5,a5,a4
    5202011a:	0007c783          	lbu	a5,0(a5)
    5202011e:	c781                	beqz	a5,52020126 <main+0x2e>
    52020120:	fe042623          	sw	zero,-20(s0)
    52020124:	a831                	j	52020140 <main+0x48>
    52020126:	fe842783          	lw	a5,-24(s0)
    5202012a:	2785                	addiw	a5,a5,1
    5202012c:	fef42423          	sw	a5,-24(s0)
    52020130:	fe842783          	lw	a5,-24(s0)
    52020134:	0007871b          	sext.w	a4,a5
    52020138:	03100793          	li	a5,49
    5202013c:	fce7d8e3          	bge	a5,a4,5202010c <main+0x14>
    52020140:	fec42783          	lw	a5,-20(s0)
    52020144:	2781                	sext.w	a5,a5
    52020146:	cb81                	beqz	a5,52020156 <main+0x5e>
    52020148:	00000517          	auipc	a0,0x0
    5202014c:	03050513          	addi	a0,a0,48 # 52020178 <main+0x80>
    52020150:	f81ff0ef          	jal	520200d0 <bios_putstr>
    52020154:	a809                	j	52020166 <main+0x6e>
    52020156:	00000517          	auipc	a0,0x0
    5202015a:	04250513          	addi	a0,a0,66 # 52020198 <main+0xa0>
    5202015e:	f73ff0ef          	jal	520200d0 <bios_putstr>
    52020162:	0001                	nop
    52020164:	bffd                	j	52020162 <main+0x6a>
    52020166:	4781                	li	a5,0
    52020168:	853e                	mv	a0,a5
    5202016a:	60e2                	ld	ra,24(sp)
    5202016c:	6442                	ld	s0,16(sp)
    5202016e:	6105                	addi	sp,sp,32
    52020170:	8082                	ret
