
build/duplication:     file format elf64-littleriscv


Disassembly of section .text:

0000000052040000 <_start>:
    52040000:	7119                	addi	sp,sp,-128
    52040002:	e016                	sd	t0,0(sp)
    52040004:	e41a                	sd	t1,8(sp)
    52040006:	e81e                	sd	t2,16(sp)
    52040008:	ec72                	sd	t3,24(sp)
    5204000a:	f076                	sd	t4,32(sp)
    5204000c:	f47a                	sd	t5,40(sp)
    5204000e:	f87e                	sd	t6,48(sp)
    52040010:	fc06                	sd	ra,56(sp)
    52040012:	e0aa                	sd	a0,64(sp)
    52040014:	e4ae                	sd	a1,72(sp)
    52040016:	e8b2                	sd	a2,80(sp)
    52040018:	ecb6                	sd	a3,88(sp)
    5204001a:	f0ba                	sd	a4,96(sp)
    5204001c:	f4be                	sd	a5,104(sp)
    5204001e:	f8c2                	sd	a6,112(sp)
    52040020:	fcc6                	sd	a7,120(sp)
    52040022:	00001517          	auipc	a0,0x1
    52040026:	c4650513          	addi	a0,a0,-954 # 52040c68 <__BSS_END__>
    5204002a:	00001597          	auipc	a1,0x1
    5204002e:	c3e58593          	addi	a1,a1,-962 # 52040c68 <__BSS_END__>
    52040032:	00b55763          	bge	a0,a1,52040040 <EMPBSS>

0000000052040036 <FLAT>:
    52040036:	00050023          	sb	zero,0(a0)
    5204003a:	0505                	addi	a0,a0,1
    5204003c:	feb54de3          	blt	a0,a1,52040036 <FLAT>

0000000052040040 <EMPBSS>:
    52040040:	674000ef          	jal	520406b4 <main>
    52040044:	78e6                	ld	a7,120(sp)
    52040046:	7846                	ld	a6,112(sp)
    52040048:	77a6                	ld	a5,104(sp)
    5204004a:	7706                	ld	a4,96(sp)
    5204004c:	66e6                	ld	a3,88(sp)
    5204004e:	6646                	ld	a2,80(sp)
    52040050:	65a6                	ld	a1,72(sp)
    52040052:	6506                	ld	a0,64(sp)
    52040054:	70e2                	ld	ra,56(sp)
    52040056:	7fc2                	ld	t6,48(sp)
    52040058:	7f22                	ld	t5,40(sp)
    5204005a:	7e82                	ld	t4,32(sp)
    5204005c:	6e62                	ld	t3,24(sp)
    5204005e:	63c2                	ld	t2,16(sp)
    52040060:	6322                	ld	t1,8(sp)
    52040062:	6282                	ld	t0,0(sp)
    52040064:	6109                	addi	sp,sp,128
    52040066:	8082                	ret

0000000052040068 <loop>:
    52040068:	10500073          	wfi
    5204006c:	bff5                	j	52040068 <loop>

000000005204006e <call_jmptab>:
    5204006e:	715d                	addi	sp,sp,-80
    52040070:	e486                	sd	ra,72(sp)
    52040072:	e0a2                	sd	s0,64(sp)
    52040074:	0880                	addi	s0,sp,80
    52040076:	fca43c23          	sd	a0,-40(s0)
    5204007a:	fcb43823          	sd	a1,-48(s0)
    5204007e:	fcc43423          	sd	a2,-56(s0)
    52040082:	fcd43023          	sd	a3,-64(s0)
    52040086:	fae43c23          	sd	a4,-72(s0)
    5204008a:	faf43823          	sd	a5,-80(s0)
    5204008e:	fd843703          	ld	a4,-40(s0)
    52040092:	0a4007b7          	lui	a5,0xa400
    52040096:	1781                	addi	a5,a5,-32 # a3fffe0 <_start-0x47c40020>
    52040098:	97ba                	add	a5,a5,a4
    5204009a:	078e                	slli	a5,a5,0x3
    5204009c:	639c                	ld	a5,0(a5)
    5204009e:	fef43423          	sd	a5,-24(s0)
    520400a2:	fe843783          	ld	a5,-24(s0)
    520400a6:	fef43023          	sd	a5,-32(s0)
    520400aa:	fe043783          	ld	a5,-32(s0)
    520400ae:	fb043703          	ld	a4,-80(s0)
    520400b2:	fb843683          	ld	a3,-72(s0)
    520400b6:	fc043603          	ld	a2,-64(s0)
    520400ba:	fc843583          	ld	a1,-56(s0)
    520400be:	fd043503          	ld	a0,-48(s0)
    520400c2:	9782                	jalr	a5
    520400c4:	87aa                	mv	a5,a0
    520400c6:	853e                	mv	a0,a5
    520400c8:	60a6                	ld	ra,72(sp)
    520400ca:	6406                	ld	s0,64(sp)
    520400cc:	6161                	addi	sp,sp,80
    520400ce:	8082                	ret

00000000520400d0 <bios_putstr>:
    520400d0:	1101                	addi	sp,sp,-32
    520400d2:	ec06                	sd	ra,24(sp)
    520400d4:	e822                	sd	s0,16(sp)
    520400d6:	1000                	addi	s0,sp,32
    520400d8:	fea43423          	sd	a0,-24(s0)
    520400dc:	fe843583          	ld	a1,-24(s0)
    520400e0:	4781                	li	a5,0
    520400e2:	4701                	li	a4,0
    520400e4:	4681                	li	a3,0
    520400e6:	4601                	li	a2,0
    520400e8:	4501                	li	a0,0
    520400ea:	f85ff0ef          	jal	5204006e <call_jmptab>
    520400ee:	0001                	nop
    520400f0:	60e2                	ld	ra,24(sp)
    520400f2:	6442                	ld	s0,16(sp)
    520400f4:	6105                	addi	sp,sp,32
    520400f6:	8082                	ret

00000000520400f8 <bios_putchar>:
    520400f8:	1101                	addi	sp,sp,-32
    520400fa:	ec06                	sd	ra,24(sp)
    520400fc:	e822                	sd	s0,16(sp)
    520400fe:	1000                	addi	s0,sp,32
    52040100:	87aa                	mv	a5,a0
    52040102:	fef42623          	sw	a5,-20(s0)
    52040106:	fec42583          	lw	a1,-20(s0)
    5204010a:	4781                	li	a5,0
    5204010c:	4701                	li	a4,0
    5204010e:	4681                	li	a3,0
    52040110:	4601                	li	a2,0
    52040112:	4505                	li	a0,1
    52040114:	f5bff0ef          	jal	5204006e <call_jmptab>
    52040118:	0001                	nop
    5204011a:	60e2                	ld	ra,24(sp)
    5204011c:	6442                	ld	s0,16(sp)
    5204011e:	6105                	addi	sp,sp,32
    52040120:	8082                	ret

0000000052040122 <bios_getchar>:
    52040122:	1141                	addi	sp,sp,-16
    52040124:	e406                	sd	ra,8(sp)
    52040126:	e022                	sd	s0,0(sp)
    52040128:	0800                	addi	s0,sp,16
    5204012a:	4781                	li	a5,0
    5204012c:	4701                	li	a4,0
    5204012e:	4681                	li	a3,0
    52040130:	4601                	li	a2,0
    52040132:	4581                	li	a1,0
    52040134:	4509                	li	a0,2
    52040136:	f39ff0ef          	jal	5204006e <call_jmptab>
    5204013a:	87aa                	mv	a5,a0
    5204013c:	2781                	sext.w	a5,a5
    5204013e:	853e                	mv	a0,a5
    52040140:	60a2                	ld	ra,8(sp)
    52040142:	6402                	ld	s0,0(sp)
    52040144:	0141                	addi	sp,sp,16
    52040146:	8082                	ret

0000000052040148 <bp_putchar>:
    52040148:	7139                	addi	sp,sp,-64
    5204014a:	fc06                	sd	ra,56(sp)
    5204014c:	f822                	sd	s0,48(sp)
    5204014e:	0080                	addi	s0,sp,64
    52040150:	87aa                	mv	a5,a0
    52040152:	fcf42623          	sw	a5,-52(s0)
    52040156:	506017b7          	lui	a5,0x50601
    5204015a:	07c1                	addi	a5,a5,16 # 50601010 <_start-0x1a3eff0>
    5204015c:	0007c703          	lbu	a4,0(a5)
    52040160:	fce40c23          	sb	a4,-40(s0)
    52040164:	0017c783          	lbu	a5,1(a5)
    52040168:	fcf40ca3          	sb	a5,-39(s0)
    5204016c:	fd944783          	lbu	a5,-39(s0)
    52040170:	2781                	sext.w	a5,a5
    52040172:	8bc1                	andi	a5,a5,16
    52040174:	2781                	sext.w	a5,a5
    52040176:	cbb9                	beqz	a5,520401cc <bp_putchar+0x84>
    52040178:	506017b7          	lui	a5,0x50601
    5204017c:	639c                	ld	a5,0(a5)
    5204017e:	fef43423          	sd	a5,-24(s0)
    52040182:	506017b7          	lui	a5,0x50601
    52040186:	fef43023          	sd	a5,-32(s0)
    5204018a:	fcc42783          	lw	a5,-52(s0)
    5204018e:	0ff7f713          	zext.b	a4,a5
    52040192:	fe843783          	ld	a5,-24(s0)
    52040196:	00e78023          	sb	a4,0(a5) # 50601000 <_start-0x1a3f000>
    5204019a:	fe843783          	ld	a5,-24(s0)
    5204019e:	0785                	addi	a5,a5,1
    520401a0:	fef43423          	sd	a5,-24(s0)
    520401a4:	fe843703          	ld	a4,-24(s0)
    520401a8:	506017b7          	lui	a5,0x50601
    520401ac:	00f76663          	bltu	a4,a5,520401b8 <bp_putchar+0x70>
    520401b0:	506007b7          	lui	a5,0x50600
    520401b4:	fef43423          	sd	a5,-24(s0)
    520401b8:	fe843783          	ld	a5,-24(s0)
    520401bc:	00078023          	sb	zero,0(a5) # 50600000 <_start-0x1a40000>
    520401c0:	fe043783          	ld	a5,-32(s0)
    520401c4:	fe843703          	ld	a4,-24(s0)
    520401c8:	e398                	sd	a4,0(a5)
    520401ca:	a031                	j	520401d6 <bp_putchar+0x8e>
    520401cc:	fcc42783          	lw	a5,-52(s0)
    520401d0:	853e                	mv	a0,a5
    520401d2:	f27ff0ef          	jal	520400f8 <bios_putchar>
    520401d6:	0001                	nop
    520401d8:	70e2                	ld	ra,56(sp)
    520401da:	7442                	ld	s0,48(sp)
    520401dc:	6121                	addi	sp,sp,64
    520401de:	8082                	ret

00000000520401e0 <bp_putstr>:
    520401e0:	7139                	addi	sp,sp,-64
    520401e2:	fc06                	sd	ra,56(sp)
    520401e4:	f822                	sd	s0,48(sp)
    520401e6:	0080                	addi	s0,sp,64
    520401e8:	fca43423          	sd	a0,-56(s0)
    520401ec:	506017b7          	lui	a5,0x50601
    520401f0:	07c1                	addi	a5,a5,16 # 50601010 <_start-0x1a3eff0>
    520401f2:	0007c703          	lbu	a4,0(a5)
    520401f6:	fce40c23          	sb	a4,-40(s0)
    520401fa:	0017c783          	lbu	a5,1(a5)
    520401fe:	fcf40ca3          	sb	a5,-39(s0)
    52040202:	fd944783          	lbu	a5,-39(s0)
    52040206:	2781                	sext.w	a5,a5
    52040208:	8bc1                	andi	a5,a5,16
    5204020a:	2781                	sext.w	a5,a5
    5204020c:	c7a5                	beqz	a5,52040274 <bp_putstr+0x94>
    5204020e:	506017b7          	lui	a5,0x50601
    52040212:	639c                	ld	a5,0(a5)
    52040214:	fef43423          	sd	a5,-24(s0)
    52040218:	506017b7          	lui	a5,0x50601
    5204021c:	fef43023          	sd	a5,-32(s0)
    52040220:	a81d                	j	52040256 <bp_putstr+0x76>
    52040222:	fc843703          	ld	a4,-56(s0)
    52040226:	00170793          	addi	a5,a4,1
    5204022a:	fcf43423          	sd	a5,-56(s0)
    5204022e:	fe843783          	ld	a5,-24(s0)
    52040232:	00178693          	addi	a3,a5,1 # 50601001 <_start-0x1a3efff>
    52040236:	fed43423          	sd	a3,-24(s0)
    5204023a:	00074703          	lbu	a4,0(a4)
    5204023e:	00e78023          	sb	a4,0(a5)
    52040242:	fe843703          	ld	a4,-24(s0)
    52040246:	506017b7          	lui	a5,0x50601
    5204024a:	00f76663          	bltu	a4,a5,52040256 <bp_putstr+0x76>
    5204024e:	506007b7          	lui	a5,0x50600
    52040252:	fef43423          	sd	a5,-24(s0)
    52040256:	fc843783          	ld	a5,-56(s0)
    5204025a:	0007c783          	lbu	a5,0(a5) # 50600000 <_start-0x1a40000>
    5204025e:	f3f1                	bnez	a5,52040222 <bp_putstr+0x42>
    52040260:	fe843783          	ld	a5,-24(s0)
    52040264:	00078023          	sb	zero,0(a5)
    52040268:	fe043783          	ld	a5,-32(s0)
    5204026c:	fe843703          	ld	a4,-24(s0)
    52040270:	e398                	sd	a4,0(a5)
    52040272:	a029                	j	5204027c <bp_putstr+0x9c>
    52040274:	fc843503          	ld	a0,-56(s0)
    52040278:	e59ff0ef          	jal	520400d0 <bios_putstr>
    5204027c:	0001                	nop
    5204027e:	70e2                	ld	ra,56(sp)
    52040280:	7442                	ld	s0,48(sp)
    52040282:	6121                	addi	sp,sp,64
    52040284:	8082                	ret

0000000052040286 <bp_getchar>:
    52040286:	7179                	addi	sp,sp,-48
    52040288:	f406                	sd	ra,40(sp)
    5204028a:	f022                	sd	s0,32(sp)
    5204028c:	1800                	addi	s0,sp,48
    5204028e:	506017b7          	lui	a5,0x50601
    52040292:	07c1                	addi	a5,a5,16 # 50601010 <_start-0x1a3eff0>
    52040294:	0007c703          	lbu	a4,0(a5)
    52040298:	fce40c23          	sb	a4,-40(s0)
    5204029c:	0017c783          	lbu	a5,1(a5)
    520402a0:	fcf40ca3          	sb	a5,-39(s0)
    520402a4:	fd944783          	lbu	a5,-39(s0)
    520402a8:	2781                	sext.w	a5,a5
    520402aa:	8b85                	andi	a5,a5,1
    520402ac:	2781                	sext.w	a5,a5
    520402ae:	cfb9                	beqz	a5,5204030c <bp_getchar+0x86>
    520402b0:	506017b7          	lui	a5,0x50601
    520402b4:	07a1                	addi	a5,a5,8 # 50601008 <_start-0x1a3eff8>
    520402b6:	639c                	ld	a5,0(a5)
    520402b8:	fef43423          	sd	a5,-24(s0)
    520402bc:	506017b7          	lui	a5,0x50601
    520402c0:	07a1                	addi	a5,a5,8 # 50601008 <_start-0x1a3eff8>
    520402c2:	fef43023          	sd	a5,-32(s0)
    520402c6:	fe843783          	ld	a5,-24(s0)
    520402ca:	0007c783          	lbu	a5,0(a5)
    520402ce:	fcf42e23          	sw	a5,-36(s0)
    520402d2:	fdc42783          	lw	a5,-36(s0)
    520402d6:	2781                	sext.w	a5,a5
    520402d8:	cb85                	beqz	a5,52040308 <bp_getchar+0x82>
    520402da:	fe843783          	ld	a5,-24(s0)
    520402de:	0785                	addi	a5,a5,1
    520402e0:	fef43423          	sd	a5,-24(s0)
    520402e4:	fe843703          	ld	a4,-24(s0)
    520402e8:	506017b7          	lui	a5,0x50601
    520402ec:	00f76663          	bltu	a4,a5,520402f8 <bp_getchar+0x72>
    520402f0:	506007b7          	lui	a5,0x50600
    520402f4:	fef43423          	sd	a5,-24(s0)
    520402f8:	fe043783          	ld	a5,-32(s0)
    520402fc:	fe843703          	ld	a4,-24(s0)
    52040300:	e398                	sd	a4,0(a5)
    52040302:	fdc42783          	lw	a5,-36(s0)
    52040306:	a031                	j	52040312 <bp_getchar+0x8c>
    52040308:	57fd                	li	a5,-1
    5204030a:	a021                	j	52040312 <bp_getchar+0x8c>
    5204030c:	e17ff0ef          	jal	52040122 <bios_getchar>
    52040310:	87aa                	mv	a5,a0
    52040312:	853e                	mv	a0,a5
    52040314:	70a2                	ld	ra,40(sp)
    52040316:	7402                	ld	s0,32(sp)
    52040318:	6145                	addi	sp,sp,48
    5204031a:	8082                	ret

000000005204031c <memcpy>:
    5204031c:	7179                	addi	sp,sp,-48
    5204031e:	f406                	sd	ra,40(sp)
    52040320:	f022                	sd	s0,32(sp)
    52040322:	1800                	addi	s0,sp,48
    52040324:	fea43423          	sd	a0,-24(s0)
    52040328:	feb43023          	sd	a1,-32(s0)
    5204032c:	87b2                	mv	a5,a2
    5204032e:	fcf42e23          	sw	a5,-36(s0)
    52040332:	a035                	j	5204035e <memcpy+0x42>
    52040334:	fe043703          	ld	a4,-32(s0)
    52040338:	00170793          	addi	a5,a4,1
    5204033c:	fef43023          	sd	a5,-32(s0)
    52040340:	fe843783          	ld	a5,-24(s0)
    52040344:	00178693          	addi	a3,a5,1 # 50600001 <_start-0x1a3ffff>
    52040348:	fed43423          	sd	a3,-24(s0)
    5204034c:	00074703          	lbu	a4,0(a4)
    52040350:	00e78023          	sb	a4,0(a5)
    52040354:	fdc42783          	lw	a5,-36(s0)
    52040358:	37fd                	addiw	a5,a5,-1
    5204035a:	fcf42e23          	sw	a5,-36(s0)
    5204035e:	fdc42783          	lw	a5,-36(s0)
    52040362:	2781                	sext.w	a5,a5
    52040364:	fbe1                	bnez	a5,52040334 <memcpy+0x18>
    52040366:	0001                	nop
    52040368:	0001                	nop
    5204036a:	70a2                	ld	ra,40(sp)
    5204036c:	7402                	ld	s0,32(sp)
    5204036e:	6145                	addi	sp,sp,48
    52040370:	8082                	ret

0000000052040372 <memset>:
    52040372:	7179                	addi	sp,sp,-48
    52040374:	f406                	sd	ra,40(sp)
    52040376:	f022                	sd	s0,32(sp)
    52040378:	1800                	addi	s0,sp,48
    5204037a:	fca43c23          	sd	a0,-40(s0)
    5204037e:	87ae                	mv	a5,a1
    52040380:	8732                	mv	a4,a2
    52040382:	fcf40ba3          	sb	a5,-41(s0)
    52040386:	87ba                	mv	a5,a4
    52040388:	fcf42823          	sw	a5,-48(s0)
    5204038c:	fd843783          	ld	a5,-40(s0)
    52040390:	fef43423          	sd	a5,-24(s0)
    52040394:	a005                	j	520403b4 <memset+0x42>
    52040396:	fe843783          	ld	a5,-24(s0)
    5204039a:	00178713          	addi	a4,a5,1
    5204039e:	fee43423          	sd	a4,-24(s0)
    520403a2:	fd744703          	lbu	a4,-41(s0)
    520403a6:	00e78023          	sb	a4,0(a5)
    520403aa:	fd042783          	lw	a5,-48(s0)
    520403ae:	37fd                	addiw	a5,a5,-1
    520403b0:	fcf42823          	sw	a5,-48(s0)
    520403b4:	fd042783          	lw	a5,-48(s0)
    520403b8:	2781                	sext.w	a5,a5
    520403ba:	fff1                	bnez	a5,52040396 <memset+0x24>
    520403bc:	0001                	nop
    520403be:	0001                	nop
    520403c0:	70a2                	ld	ra,40(sp)
    520403c2:	7402                	ld	s0,32(sp)
    520403c4:	6145                	addi	sp,sp,48
    520403c6:	8082                	ret

00000000520403c8 <bzero>:
    520403c8:	1101                	addi	sp,sp,-32
    520403ca:	ec06                	sd	ra,24(sp)
    520403cc:	e822                	sd	s0,16(sp)
    520403ce:	1000                	addi	s0,sp,32
    520403d0:	fea43423          	sd	a0,-24(s0)
    520403d4:	87ae                	mv	a5,a1
    520403d6:	fef42223          	sw	a5,-28(s0)
    520403da:	fe442783          	lw	a5,-28(s0)
    520403de:	863e                	mv	a2,a5
    520403e0:	4581                	li	a1,0
    520403e2:	fe843503          	ld	a0,-24(s0)
    520403e6:	f8dff0ef          	jal	52040372 <memset>
    520403ea:	0001                	nop
    520403ec:	60e2                	ld	ra,24(sp)
    520403ee:	6442                	ld	s0,16(sp)
    520403f0:	6105                	addi	sp,sp,32
    520403f2:	8082                	ret

00000000520403f4 <strlen>:
    520403f4:	7179                	addi	sp,sp,-48
    520403f6:	f406                	sd	ra,40(sp)
    520403f8:	f022                	sd	s0,32(sp)
    520403fa:	1800                	addi	s0,sp,48
    520403fc:	fca43c23          	sd	a0,-40(s0)
    52040400:	fe042623          	sw	zero,-20(s0)
    52040404:	a031                	j	52040410 <strlen+0x1c>
    52040406:	fec42783          	lw	a5,-20(s0)
    5204040a:	2785                	addiw	a5,a5,1
    5204040c:	fef42623          	sw	a5,-20(s0)
    52040410:	fec42783          	lw	a5,-20(s0)
    52040414:	fd843703          	ld	a4,-40(s0)
    52040418:	97ba                	add	a5,a5,a4
    5204041a:	0007c783          	lbu	a5,0(a5)
    5204041e:	f7e5                	bnez	a5,52040406 <strlen+0x12>
    52040420:	fec42783          	lw	a5,-20(s0)
    52040424:	853e                	mv	a0,a5
    52040426:	70a2                	ld	ra,40(sp)
    52040428:	7402                	ld	s0,32(sp)
    5204042a:	6145                	addi	sp,sp,48
    5204042c:	8082                	ret

000000005204042e <strcmp>:
    5204042e:	1101                	addi	sp,sp,-32
    52040430:	ec06                	sd	ra,24(sp)
    52040432:	e822                	sd	s0,16(sp)
    52040434:	1000                	addi	s0,sp,32
    52040436:	fea43423          	sd	a0,-24(s0)
    5204043a:	feb43023          	sd	a1,-32(s0)
    5204043e:	a0a1                	j	52040486 <strcmp+0x58>
    52040440:	fe843783          	ld	a5,-24(s0)
    52040444:	0007c703          	lbu	a4,0(a5)
    52040448:	fe043783          	ld	a5,-32(s0)
    5204044c:	0007c783          	lbu	a5,0(a5)
    52040450:	02f70163          	beq	a4,a5,52040472 <strcmp+0x44>
    52040454:	fe843783          	ld	a5,-24(s0)
    52040458:	0007c783          	lbu	a5,0(a5)
    5204045c:	0007871b          	sext.w	a4,a5
    52040460:	fe043783          	ld	a5,-32(s0)
    52040464:	0007c783          	lbu	a5,0(a5)
    52040468:	2781                	sext.w	a5,a5
    5204046a:	40f707bb          	subw	a5,a4,a5
    5204046e:	2781                	sext.w	a5,a5
    52040470:	a099                	j	520404b6 <strcmp+0x88>
    52040472:	fe843783          	ld	a5,-24(s0)
    52040476:	0785                	addi	a5,a5,1
    52040478:	fef43423          	sd	a5,-24(s0)
    5204047c:	fe043783          	ld	a5,-32(s0)
    52040480:	0785                	addi	a5,a5,1
    52040482:	fef43023          	sd	a5,-32(s0)
    52040486:	fe843783          	ld	a5,-24(s0)
    5204048a:	0007c783          	lbu	a5,0(a5)
    5204048e:	c791                	beqz	a5,5204049a <strcmp+0x6c>
    52040490:	fe043783          	ld	a5,-32(s0)
    52040494:	0007c783          	lbu	a5,0(a5)
    52040498:	f7c5                	bnez	a5,52040440 <strcmp+0x12>
    5204049a:	fe843783          	ld	a5,-24(s0)
    5204049e:	0007c783          	lbu	a5,0(a5)
    520404a2:	0007871b          	sext.w	a4,a5
    520404a6:	fe043783          	ld	a5,-32(s0)
    520404aa:	0007c783          	lbu	a5,0(a5)
    520404ae:	2781                	sext.w	a5,a5
    520404b0:	40f707bb          	subw	a5,a4,a5
    520404b4:	2781                	sext.w	a5,a5
    520404b6:	853e                	mv	a0,a5
    520404b8:	60e2                	ld	ra,24(sp)
    520404ba:	6442                	ld	s0,16(sp)
    520404bc:	6105                	addi	sp,sp,32
    520404be:	8082                	ret

00000000520404c0 <strncmp>:
    520404c0:	7139                	addi	sp,sp,-64
    520404c2:	fc06                	sd	ra,56(sp)
    520404c4:	f822                	sd	s0,48(sp)
    520404c6:	0080                	addi	s0,sp,64
    520404c8:	fca43c23          	sd	a0,-40(s0)
    520404cc:	fcb43823          	sd	a1,-48(s0)
    520404d0:	87b2                	mv	a5,a2
    520404d2:	fcf42623          	sw	a5,-52(s0)
    520404d6:	fe042623          	sw	zero,-20(s0)
    520404da:	a0a5                	j	52040542 <strncmp+0x82>
    520404dc:	fec46783          	lwu	a5,-20(s0)
    520404e0:	fd843703          	ld	a4,-40(s0)
    520404e4:	97ba                	add	a5,a5,a4
    520404e6:	0007c783          	lbu	a5,0(a5)
    520404ea:	c395                	beqz	a5,5204050e <strncmp+0x4e>
    520404ec:	fec46783          	lwu	a5,-20(s0)
    520404f0:	fd843703          	ld	a4,-40(s0)
    520404f4:	97ba                	add	a5,a5,a4
    520404f6:	0007c683          	lbu	a3,0(a5)
    520404fa:	fec46783          	lwu	a5,-20(s0)
    520404fe:	fd043703          	ld	a4,-48(s0)
    52040502:	97ba                	add	a5,a5,a4
    52040504:	0007c783          	lbu	a5,0(a5)
    52040508:	8736                	mv	a4,a3
    5204050a:	02f70763          	beq	a4,a5,52040538 <strncmp+0x78>
    5204050e:	fec46783          	lwu	a5,-20(s0)
    52040512:	fd843703          	ld	a4,-40(s0)
    52040516:	97ba                	add	a5,a5,a4
    52040518:	0007c783          	lbu	a5,0(a5)
    5204051c:	0007871b          	sext.w	a4,a5
    52040520:	fec46783          	lwu	a5,-20(s0)
    52040524:	fd043683          	ld	a3,-48(s0)
    52040528:	97b6                	add	a5,a5,a3
    5204052a:	0007c783          	lbu	a5,0(a5)
    5204052e:	2781                	sext.w	a5,a5
    52040530:	40f707bb          	subw	a5,a4,a5
    52040534:	2781                	sext.w	a5,a5
    52040536:	a005                	j	52040556 <strncmp+0x96>
    52040538:	fec42783          	lw	a5,-20(s0)
    5204053c:	2785                	addiw	a5,a5,1
    5204053e:	fef42623          	sw	a5,-20(s0)
    52040542:	fec42783          	lw	a5,-20(s0)
    52040546:	873e                	mv	a4,a5
    52040548:	fcc42783          	lw	a5,-52(s0)
    5204054c:	2701                	sext.w	a4,a4
    5204054e:	2781                	sext.w	a5,a5
    52040550:	f8f766e3          	bltu	a4,a5,520404dc <strncmp+0x1c>
    52040554:	4781                	li	a5,0
    52040556:	853e                	mv	a0,a5
    52040558:	70e2                	ld	ra,56(sp)
    5204055a:	7442                	ld	s0,48(sp)
    5204055c:	6121                	addi	sp,sp,64
    5204055e:	8082                	ret

0000000052040560 <strcpy>:
    52040560:	7179                	addi	sp,sp,-48
    52040562:	f406                	sd	ra,40(sp)
    52040564:	f022                	sd	s0,32(sp)
    52040566:	1800                	addi	s0,sp,48
    52040568:	fca43c23          	sd	a0,-40(s0)
    5204056c:	fcb43823          	sd	a1,-48(s0)
    52040570:	fd843783          	ld	a5,-40(s0)
    52040574:	fef43423          	sd	a5,-24(s0)
    52040578:	a00d                	j	5204059a <strcpy+0x3a>
    5204057a:	fd043703          	ld	a4,-48(s0)
    5204057e:	00170793          	addi	a5,a4,1
    52040582:	fcf43823          	sd	a5,-48(s0)
    52040586:	fd843783          	ld	a5,-40(s0)
    5204058a:	00178693          	addi	a3,a5,1
    5204058e:	fcd43c23          	sd	a3,-40(s0)
    52040592:	00074703          	lbu	a4,0(a4)
    52040596:	00e78023          	sb	a4,0(a5)
    5204059a:	fd043783          	ld	a5,-48(s0)
    5204059e:	0007c783          	lbu	a5,0(a5)
    520405a2:	ffe1                	bnez	a5,5204057a <strcpy+0x1a>
    520405a4:	fd843783          	ld	a5,-40(s0)
    520405a8:	00078023          	sb	zero,0(a5)
    520405ac:	fe843783          	ld	a5,-24(s0)
    520405b0:	853e                	mv	a0,a5
    520405b2:	70a2                	ld	ra,40(sp)
    520405b4:	7402                	ld	s0,32(sp)
    520405b6:	6145                	addi	sp,sp,48
    520405b8:	8082                	ret

00000000520405ba <strncpy>:
    520405ba:	7139                	addi	sp,sp,-64
    520405bc:	fc06                	sd	ra,56(sp)
    520405be:	f822                	sd	s0,48(sp)
    520405c0:	0080                	addi	s0,sp,64
    520405c2:	fca43c23          	sd	a0,-40(s0)
    520405c6:	fcb43823          	sd	a1,-48(s0)
    520405ca:	87b2                	mv	a5,a2
    520405cc:	fcf42623          	sw	a5,-52(s0)
    520405d0:	fd843783          	ld	a5,-40(s0)
    520405d4:	fef43423          	sd	a5,-24(s0)
    520405d8:	a00d                	j	520405fa <strncpy+0x40>
    520405da:	fd043703          	ld	a4,-48(s0)
    520405de:	00170793          	addi	a5,a4,1
    520405e2:	fcf43823          	sd	a5,-48(s0)
    520405e6:	fd843783          	ld	a5,-40(s0)
    520405ea:	00178693          	addi	a3,a5,1
    520405ee:	fcd43c23          	sd	a3,-40(s0)
    520405f2:	00074703          	lbu	a4,0(a4)
    520405f6:	00e78023          	sb	a4,0(a5)
    520405fa:	fd043783          	ld	a5,-48(s0)
    520405fe:	0007c783          	lbu	a5,0(a5)
    52040602:	c395                	beqz	a5,52040626 <strncpy+0x6c>
    52040604:	fcc42783          	lw	a5,-52(s0)
    52040608:	fff7871b          	addiw	a4,a5,-1
    5204060c:	fce42623          	sw	a4,-52(s0)
    52040610:	fcf045e3          	bgtz	a5,520405da <strncpy+0x20>
    52040614:	a809                	j	52040626 <strncpy+0x6c>
    52040616:	fd843783          	ld	a5,-40(s0)
    5204061a:	00178713          	addi	a4,a5,1
    5204061e:	fce43c23          	sd	a4,-40(s0)
    52040622:	00078023          	sb	zero,0(a5)
    52040626:	fcc42783          	lw	a5,-52(s0)
    5204062a:	fff7871b          	addiw	a4,a5,-1
    5204062e:	fce42623          	sw	a4,-52(s0)
    52040632:	fef042e3          	bgtz	a5,52040616 <strncpy+0x5c>
    52040636:	fe843783          	ld	a5,-24(s0)
    5204063a:	853e                	mv	a0,a5
    5204063c:	70e2                	ld	ra,56(sp)
    5204063e:	7442                	ld	s0,48(sp)
    52040640:	6121                	addi	sp,sp,64
    52040642:	8082                	ret

0000000052040644 <strcat>:
    52040644:	7179                	addi	sp,sp,-48
    52040646:	f406                	sd	ra,40(sp)
    52040648:	f022                	sd	s0,32(sp)
    5204064a:	1800                	addi	s0,sp,48
    5204064c:	fca43c23          	sd	a0,-40(s0)
    52040650:	fcb43823          	sd	a1,-48(s0)
    52040654:	fd843783          	ld	a5,-40(s0)
    52040658:	fef43423          	sd	a5,-24(s0)
    5204065c:	a031                	j	52040668 <strcat+0x24>
    5204065e:	fd843783          	ld	a5,-40(s0)
    52040662:	0785                	addi	a5,a5,1
    52040664:	fcf43c23          	sd	a5,-40(s0)
    52040668:	fd843783          	ld	a5,-40(s0)
    5204066c:	0007c783          	lbu	a5,0(a5)
    52040670:	f7fd                	bnez	a5,5204065e <strcat+0x1a>
    52040672:	a00d                	j	52040694 <strcat+0x50>
    52040674:	fd043703          	ld	a4,-48(s0)
    52040678:	00170793          	addi	a5,a4,1
    5204067c:	fcf43823          	sd	a5,-48(s0)
    52040680:	fd843783          	ld	a5,-40(s0)
    52040684:	00178693          	addi	a3,a5,1
    52040688:	fcd43c23          	sd	a3,-40(s0)
    5204068c:	00074703          	lbu	a4,0(a4)
    52040690:	00e78023          	sb	a4,0(a5)
    52040694:	fd043783          	ld	a5,-48(s0)
    52040698:	0007c783          	lbu	a5,0(a5)
    5204069c:	ffe1                	bnez	a5,52040674 <strcat+0x30>
    5204069e:	fd843783          	ld	a5,-40(s0)
    520406a2:	00078023          	sb	zero,0(a5)
    520406a6:	fe843783          	ld	a5,-24(s0)
    520406aa:	853e                	mv	a0,a5
    520406ac:	70a2                	ld	ra,40(sp)
    520406ae:	7402                	ld	s0,32(sp)
    520406b0:	6145                	addi	sp,sp,48
    520406b2:	8082                	ret

00000000520406b4 <main>:
    520406b4:	dc010113          	addi	sp,sp,-576
    520406b8:	22113c23          	sd	ra,568(sp)
    520406bc:	22813823          	sd	s0,560(sp)
    520406c0:	0480                	addi	s0,sp,576
    520406c2:	fe042623          	sw	zero,-20(s0)
    520406c6:	fe042423          	sw	zero,-24(s0)
    520406ca:	fe042223          	sw	zero,-28(s0)
    520406ce:	bb9ff0ef          	jal	52040286 <bp_getchar>
    520406d2:	87aa                	mv	a5,a0
    520406d4:	fef42023          	sw	a5,-32(s0)
    520406d8:	fe042783          	lw	a5,-32(s0)
    520406dc:	0007871b          	sext.w	a4,a5
    520406e0:	57fd                	li	a5,-1
    520406e2:	04f70863          	beq	a4,a5,52040732 <main+0x7e>
    520406e6:	fe042783          	lw	a5,-32(s0)
    520406ea:	0007871b          	sext.w	a4,a5
    520406ee:	47a9                	li	a5,10
    520406f0:	04f70163          	beq	a4,a5,52040732 <main+0x7e>
    520406f4:	fe042783          	lw	a5,-32(s0)
    520406f8:	0007871b          	sext.w	a4,a5
    520406fc:	47b5                	li	a5,13
    520406fe:	02f70a63          	beq	a4,a5,52040732 <main+0x7e>
    52040702:	fe042223          	sw	zero,-28(s0)
    52040706:	fe842703          	lw	a4,-24(s0)
    5204070a:	0017079b          	addiw	a5,a4,1
    5204070e:	fef42423          	sw	a5,-24(s0)
    52040712:	fe042783          	lw	a5,-32(s0)
    52040716:	0ff7f693          	zext.b	a3,a5
    5204071a:	fec42603          	lw	a2,-20(s0)
    5204071e:	03200793          	li	a5,50
    52040722:	02f607b3          	mul	a5,a2,a5
    52040726:	17c1                	addi	a5,a5,-16
    52040728:	97a2                	add	a5,a5,s0
    5204072a:	97ba                	add	a5,a5,a4
    5204072c:	ded78c23          	sb	a3,-520(a5)
    52040730:	a099                	j	52040776 <main+0xc2>
    52040732:	fe442783          	lw	a5,-28(s0)
    52040736:	2781                	sext.w	a5,a5
    52040738:	e3a1                	bnez	a5,52040778 <main+0xc4>
    5204073a:	fe042783          	lw	a5,-32(s0)
    5204073e:	0007871b          	sext.w	a4,a5
    52040742:	47b5                	li	a5,13
    52040744:	f8f715e3          	bne	a4,a5,520406ce <main+0x1a>
    52040748:	4785                	li	a5,1
    5204074a:	fef42223          	sw	a5,-28(s0)
    5204074e:	fe842703          	lw	a4,-24(s0)
    52040752:	fec42683          	lw	a3,-20(s0)
    52040756:	03200793          	li	a5,50
    5204075a:	02f687b3          	mul	a5,a3,a5
    5204075e:	17c1                	addi	a5,a5,-16
    52040760:	97a2                	add	a5,a5,s0
    52040762:	97ba                	add	a5,a5,a4
    52040764:	de078c23          	sb	zero,-520(a5)
    52040768:	fec42783          	lw	a5,-20(s0)
    5204076c:	2785                	addiw	a5,a5,1
    5204076e:	fef42623          	sw	a5,-20(s0)
    52040772:	fe042423          	sw	zero,-24(s0)
    52040776:	bfa1                	j	520406ce <main+0x1a>
    52040778:	0001                	nop
    5204077a:	fec42783          	lw	a5,-20(s0)
    5204077e:	fcf42e23          	sw	a5,-36(s0)
    52040782:	00000797          	auipc	a5,0x0
    52040786:	16678793          	addi	a5,a5,358 # 520408e8 <main+0x234>
    5204078a:	638c                	ld	a1,0(a5)
    5204078c:	6790                	ld	a2,8(a5)
    5204078e:	6b94                	ld	a3,16(a5)
    52040790:	6f98                	ld	a4,24(a5)
    52040792:	dcb43023          	sd	a1,-576(s0)
    52040796:	dcc43423          	sd	a2,-568(s0)
    5204079a:	dcd43823          	sd	a3,-560(s0)
    5204079e:	dce43c23          	sd	a4,-552(s0)
    520407a2:	739c                	ld	a5,32(a5)
    520407a4:	def43023          	sd	a5,-544(s0)
    520407a8:	fe042623          	sw	zero,-20(s0)
    520407ac:	a84d                	j	5204085e <main+0x1aa>
    520407ae:	fec42703          	lw	a4,-20(s0)
    520407b2:	dc040793          	addi	a5,s0,-576
    520407b6:	070a                	slli	a4,a4,0x2
    520407b8:	97ba                	add	a5,a5,a4
    520407ba:	4398                	lw	a4,0(a5)
    520407bc:	57fd                	li	a5,-1
    520407be:	08f70b63          	beq	a4,a5,52040854 <main+0x1a0>
    520407c2:	fec42783          	lw	a5,-20(s0)
    520407c6:	2785                	addiw	a5,a5,1
    520407c8:	fef42423          	sw	a5,-24(s0)
    520407cc:	a89d                	j	52040842 <main+0x18e>
    520407ce:	fe842703          	lw	a4,-24(s0)
    520407d2:	dc040793          	addi	a5,s0,-576
    520407d6:	070a                	slli	a4,a4,0x2
    520407d8:	97ba                	add	a5,a5,a4
    520407da:	4398                	lw	a4,0(a5)
    520407dc:	57fd                	li	a5,-1
    520407de:	04f70d63          	beq	a4,a5,52040838 <main+0x184>
    520407e2:	fec42703          	lw	a4,-20(s0)
    520407e6:	dc040793          	addi	a5,s0,-576
    520407ea:	070a                	slli	a4,a4,0x2
    520407ec:	97ba                	add	a5,a5,a4
    520407ee:	4394                	lw	a3,0(a5)
    520407f0:	de840713          	addi	a4,s0,-536
    520407f4:	03200793          	li	a5,50
    520407f8:	02f687b3          	mul	a5,a3,a5
    520407fc:	00f70633          	add	a2,a4,a5
    52040800:	fe842703          	lw	a4,-24(s0)
    52040804:	dc040793          	addi	a5,s0,-576
    52040808:	070a                	slli	a4,a4,0x2
    5204080a:	97ba                	add	a5,a5,a4
    5204080c:	4394                	lw	a3,0(a5)
    5204080e:	de840713          	addi	a4,s0,-536
    52040812:	03200793          	li	a5,50
    52040816:	02f687b3          	mul	a5,a3,a5
    5204081a:	97ba                	add	a5,a5,a4
    5204081c:	85be                	mv	a1,a5
    5204081e:	8532                	mv	a0,a2
    52040820:	c0fff0ef          	jal	5204042e <strcmp>
    52040824:	87aa                	mv	a5,a0
    52040826:	eb89                	bnez	a5,52040838 <main+0x184>
    52040828:	fe842703          	lw	a4,-24(s0)
    5204082c:	dc040793          	addi	a5,s0,-576
    52040830:	070a                	slli	a4,a4,0x2
    52040832:	97ba                	add	a5,a5,a4
    52040834:	577d                	li	a4,-1
    52040836:	c398                	sw	a4,0(a5)
    52040838:	fe842783          	lw	a5,-24(s0)
    5204083c:	2785                	addiw	a5,a5,1
    5204083e:	fef42423          	sw	a5,-24(s0)
    52040842:	fe842783          	lw	a5,-24(s0)
    52040846:	873e                	mv	a4,a5
    52040848:	fdc42783          	lw	a5,-36(s0)
    5204084c:	2701                	sext.w	a4,a4
    5204084e:	2781                	sext.w	a5,a5
    52040850:	f6f74fe3          	blt	a4,a5,520407ce <main+0x11a>
    52040854:	fec42783          	lw	a5,-20(s0)
    52040858:	2785                	addiw	a5,a5,1
    5204085a:	fef42623          	sw	a5,-20(s0)
    5204085e:	fec42783          	lw	a5,-20(s0)
    52040862:	873e                	mv	a4,a5
    52040864:	fdc42783          	lw	a5,-36(s0)
    52040868:	2701                	sext.w	a4,a4
    5204086a:	2781                	sext.w	a5,a5
    5204086c:	f4f741e3          	blt	a4,a5,520407ae <main+0xfa>
    52040870:	fe042623          	sw	zero,-20(s0)
    52040874:	a0b9                	j	520408c2 <main+0x20e>
    52040876:	fec42703          	lw	a4,-20(s0)
    5204087a:	dc040793          	addi	a5,s0,-576
    5204087e:	070a                	slli	a4,a4,0x2
    52040880:	97ba                	add	a5,a5,a4
    52040882:	4398                	lw	a4,0(a5)
    52040884:	57fd                	li	a5,-1
    52040886:	02f70963          	beq	a4,a5,520408b8 <main+0x204>
    5204088a:	fec42703          	lw	a4,-20(s0)
    5204088e:	dc040793          	addi	a5,s0,-576
    52040892:	070a                	slli	a4,a4,0x2
    52040894:	97ba                	add	a5,a5,a4
    52040896:	4394                	lw	a3,0(a5)
    52040898:	de840713          	addi	a4,s0,-536
    5204089c:	03200793          	li	a5,50
    520408a0:	02f687b3          	mul	a5,a3,a5
    520408a4:	97ba                	add	a5,a5,a4
    520408a6:	853e                	mv	a0,a5
    520408a8:	939ff0ef          	jal	520401e0 <bp_putstr>
    520408ac:	4529                	li	a0,10
    520408ae:	89bff0ef          	jal	52040148 <bp_putchar>
    520408b2:	4535                	li	a0,13
    520408b4:	895ff0ef          	jal	52040148 <bp_putchar>
    520408b8:	fec42783          	lw	a5,-20(s0)
    520408bc:	2785                	addiw	a5,a5,1
    520408be:	fef42623          	sw	a5,-20(s0)
    520408c2:	fec42783          	lw	a5,-20(s0)
    520408c6:	873e                	mv	a4,a5
    520408c8:	fdc42783          	lw	a5,-36(s0)
    520408cc:	2701                	sext.w	a4,a4
    520408ce:	2781                	sext.w	a5,a5
    520408d0:	faf743e3          	blt	a4,a5,52040876 <main+0x1c2>
    520408d4:	4781                	li	a5,0
    520408d6:	853e                	mv	a0,a5
    520408d8:	23813083          	ld	ra,568(sp)
    520408dc:	23013403          	ld	s0,560(sp)
    520408e0:	24010113          	addi	sp,sp,576
    520408e4:	8082                	ret
