
build/main:     file format elf64-littleriscv


Disassembly of section .text:

0000000050201000 <_start>:
    50201000:	10401073          	csrw	sie,zero
    50201004:	14401073          	csrw	sip,zero
    50201008:	00001297          	auipc	t0,0x1
    5020100c:	ad028293          	addi	t0,t0,-1328 # 50201ad8 <buf>
    50201010:	00001317          	auipc	t1,0x1
    50201014:	c8030313          	addi	t1,t1,-896 # 50201c90 <__BSS_END__>

0000000050201018 <clear_bss>:
    50201018:	0002a023          	sw	zero,0(t0)
    5020101c:	0291                	addi	t0,t0,4
    5020101e:	fe62ede3          	bltu	t0,t1,50201018 <clear_bss>

0000000050201022 <bss_done>:
    50201022:	50500137          	lui	sp,0x50500
    50201026:	00c0006f          	j	50201032 <main>

000000005020102a <loop>:
    5020102a:	10500073          	wfi
    5020102e:	bff5                	j	5020102a <loop>
    50201030:	0001                	nop

0000000050201032 <main>:
    50201032:	7119                	addi	sp,sp,-128
    50201034:	f8a2                	sd	s0,112(sp)
    50201036:	00001417          	auipc	s0,0x1
    5020103a:	aa240413          	addi	s0,s0,-1374 # 50201ad8 <buf>
    5020103e:	f0ca                	sd	s2,96(sp)
    50201040:	e8d2                	sd	s4,80(sp)
    50201042:	fc86                	sd	ra,120(sp)
    50201044:	f4a6                	sd	s1,104(sp)
    50201046:	ecce                	sd	s3,88(sp)
    50201048:	e4d6                	sd	s5,72(sp)
    5020104a:	e0da                	sd	s6,64(sp)
    5020104c:	892a                	mv	s2,a0
    5020104e:	8a2e                	mv	s4,a1
    50201050:	87a2                	mv	a5,s0
    50201052:	00001697          	auipc	a3,0x1
    50201056:	ab868693          	addi	a3,a3,-1352 # 50201b0a <buf+0x32>
    5020105a:	a019                	j	50201060 <main+0x2e>
    5020105c:	1cd78f63          	beq	a5,a3,5020123a <main+0x208>
    50201060:	0007c703          	lbu	a4,0(a5)
    50201064:	0785                	addi	a5,a5,1
    50201066:	db7d                	beqz	a4,5020105c <main+0x2a>
    50201068:	4981                	li	s3,0
    5020106a:	014907bb          	addw	a5,s2,s4
    5020106e:	41f7d59b          	sraiw	a1,a5,0x1f
    50201072:	0175d59b          	srliw	a1,a1,0x17
    50201076:	41f9549b          	sraiw	s1,s2,0x1f
    5020107a:	9dbd                	addw	a1,a1,a5
    5020107c:	0174d49b          	srliw	s1,s1,0x17
    50201080:	1ff7f793          	andi	a5,a5,511
    50201084:	00f037b3          	snez	a5,a5
    50201088:	4095d59b          	sraiw	a1,a1,0x9
    5020108c:	012484bb          	addw	s1,s1,s2
    50201090:	9dbd                	addw	a1,a1,a5
    50201092:	4094d49b          	sraiw	s1,s1,0x9
    50201096:	52000537          	lui	a0,0x52000
    5020109a:	00000317          	auipc	t1,0x0
    5020109e:	1cc30313          	addi	t1,t1,460 # 50201266 <port_write>
    502010a2:	9d85                	subw	a1,a1,s1
    502010a4:	f0653023          	sd	t1,-256(a0) # 51ffff00 <__BSS_END__+0x1dfe270>
    502010a8:	86aa                	mv	a3,a0
    502010aa:	00000897          	auipc	a7,0x0
    502010ae:	1a888893          	addi	a7,a7,424 # 50201252 <port_write_ch>
    502010b2:	00000817          	auipc	a6,0x0
    502010b6:	1c880813          	addi	a6,a6,456 # 5020127a <port_read_ch>
    502010ba:	02049613          	slli	a2,s1,0x20
    502010be:	00000517          	auipc	a0,0x0
    502010c2:	1de50513          	addi	a0,a0,478 # 5020129c <sd_read>
    502010c6:	1582                	slli	a1,a1,0x20
    502010c8:	f116b423          	sd	a7,-248(a3)
    502010cc:	f106b823          	sd	a6,-240(a3)
    502010d0:	f0a6bc23          	sd	a0,-232(a3)
    502010d4:	4701                	li	a4,0
    502010d6:	4681                	li	a3,0
    502010d8:	9181                	srli	a1,a1,0x20
    502010da:	9201                	srli	a2,a2,0x20
    502010dc:	52300537          	lui	a0,0x52300
    502010e0:	1bc000ef          	jal	5020129c <sd_read>
    502010e4:	523005b7          	lui	a1,0x52300
    502010e8:	0094949b          	slliw	s1,s1,0x9
    502010ec:	012585bb          	addw	a1,a1,s2
    502010f0:	8652                	mv	a2,s4
    502010f2:	9d85                	subw	a1,a1,s1
    502010f4:	00001517          	auipc	a0,0x1
    502010f8:	a1c50513          	addi	a0,a0,-1508 # 50201b10 <tasks>
    502010fc:	452000ef          	jal	5020154e <memcpy>
    50201100:	00000797          	auipc	a5,0x0
    50201104:	60878793          	addi	a5,a5,1544 # 50201708 <strcat+0x8e>
    50201108:	6390                	ld	a2,0(a5)
    5020110a:	6794                	ld	a3,8(a5)
    5020110c:	6b98                	ld	a4,16(a5)
    5020110e:	00000797          	auipc	a5,0x0
    50201112:	6127d783          	lhu	a5,1554(a5) # 50201720 <strcat+0xa6>
    50201116:	f032                	sd	a2,32(sp)
    50201118:	f436                	sd	a3,40(sp)
    5020111a:	02f11c23          	sh	a5,56(sp) # 50500038 <__BSS_END__+0x2fe3a8>
    5020111e:	f83a                	sd	a4,48(sp)
    50201120:	06600793          	li	a5,102
    50201124:	00098463          	beqz	s3,5020112c <main+0xfa>
    50201128:	07400793          	li	a5,116
    5020112c:	00001717          	auipc	a4,0x1
    50201130:	9a872703          	lw	a4,-1624(a4) # 50201ad4 <version>
    50201134:	00f10423          	sb	a5,8(sp)
    50201138:	00001597          	auipc	a1,0x1
    5020113c:	9ba58593          	addi	a1,a1,-1606 # 50201af2 <buf+0x1a>
    50201140:	0307071b          	addiw	a4,a4,48
    50201144:	101c                	addi	a5,sp,32
    50201146:	00e104a3          	sb	a4,9(sp)
    5020114a:	4601                	li	a2,0
    5020114c:	05f00693          	li	a3,95
    50201150:	0007c703          	lbu	a4,0(a5)
    50201154:	0785                	addi	a5,a5,1
    50201156:	00e40023          	sb	a4,0(s0)
    5020115a:	00d71963          	bne	a4,a3,5020116c <main+0x13a>
    5020115e:	00260733          	add	a4,a2,sp
    50201162:	00874703          	lbu	a4,8(a4)
    50201166:	2605                	addiw	a2,a2,1
    50201168:	00e40023          	sb	a4,0(s0)
    5020116c:	0405                	addi	s0,s0,1
    5020116e:	feb411e3          	bne	s0,a1,50201150 <main+0x11e>
    50201172:	00000517          	auipc	a0,0x0
    50201176:	53650513          	addi	a0,a0,1334 # 502016a8 <strcat+0x2e>
    5020117a:	0c4000ef          	jal	5020123e <bios_putstr>
    5020117e:	52000437          	lui	s0,0x52000
    50201182:	00001517          	auipc	a0,0x1
    50201186:	95650513          	addi	a0,a0,-1706 # 50201ad8 <buf>
    5020118a:	52000a37          	lui	s4,0x52000
    5020118e:	f0840a93          	addi	s5,s0,-248 # 51ffff08 <__BSS_END__+0x1dfe278>
    50201192:	0ac000ef          	jal	5020123e <bios_putstr>
    50201196:	f00a0a13          	addi	s4,s4,-256 # 51ffff00 <__BSS_END__+0x1dfe270>
    5020119a:	f1040413          	addi	s0,s0,-240
    5020119e:	44b5                	li	s1,13
    502011a0:	597d                	li	s2,-1
    502011a2:	000a3783          	ld	a5,0(s4)
    502011a6:	4701                	li	a4,0
    502011a8:	4681                	li	a3,0
    502011aa:	4601                	li	a2,0
    502011ac:	4581                	li	a1,0
    502011ae:	00000517          	auipc	a0,0x0
    502011b2:	50a50513          	addi	a0,a0,1290 # 502016b8 <strcat+0x3e>
    502011b6:	9782                	jalr	a5
    502011b8:	01010b13          	addi	s6,sp,16
    502011bc:	e802                	sd	zero,16(sp)
    502011be:	ec02                	sd	zero,24(sp)
    502011c0:	4981                	li	s3,0
    502011c2:	a019                	j	502011c8 <main+0x196>
    502011c4:	05279e63          	bne	a5,s2,50201220 <main+0x1ee>
    502011c8:	601c                	ld	a5,0(s0)
    502011ca:	4701                	li	a4,0
    502011cc:	4681                	li	a3,0
    502011ce:	4601                	li	a2,0
    502011d0:	4581                	li	a1,0
    502011d2:	4501                	li	a0,0
    502011d4:	9782                	jalr	a5
    502011d6:	0005079b          	sext.w	a5,a0
    502011da:	fe9795e3          	bne	a5,s1,502011c4 <main+0x192>
    502011de:	998a                	add	s3,s3,sp
    502011e0:	0808                	addi	a0,sp,16
    502011e2:	00098823          	sb	zero,16(s3)
    502011e6:	17e000ef          	jal	50201364 <load_task_img>
    502011ea:	000a3783          	ld	a5,0(s4)
    502011ee:	89aa                	mv	s3,a0
    502011f0:	4701                	li	a4,0
    502011f2:	4681                	li	a3,0
    502011f4:	4601                	li	a2,0
    502011f6:	4581                	li	a1,0
    502011f8:	00000517          	auipc	a0,0x0
    502011fc:	4e050513          	addi	a0,a0,1248 # 502016d8 <strcat+0x5e>
    50201200:	9782                	jalr	a5
    50201202:	fa0980e3          	beqz	s3,502011a2 <main+0x170>
    50201206:	9982                	jalr	s3
    50201208:	000a3783          	ld	a5,0(s4)
    5020120c:	4701                	li	a4,0
    5020120e:	4681                	li	a3,0
    50201210:	4601                	li	a2,0
    50201212:	4581                	li	a1,0
    50201214:	00000517          	auipc	a0,0x0
    50201218:	4cc50513          	addi	a0,a0,1228 # 502016e0 <strcat+0x66>
    5020121c:	9782                	jalr	a5
    5020121e:	b751                	j	502011a2 <main+0x170>
    50201220:	00ab0023          	sb	a0,0(s6)
    50201224:	000ab803          	ld	a6,0(s5)
    50201228:	853e                	mv	a0,a5
    5020122a:	4701                	li	a4,0
    5020122c:	4681                	li	a3,0
    5020122e:	4601                	li	a2,0
    50201230:	4581                	li	a1,0
    50201232:	2985                	addiw	s3,s3,1
    50201234:	9802                	jalr	a6
    50201236:	0b05                	addi	s6,s6,1
    50201238:	bf41                	j	502011c8 <main+0x196>
    5020123a:	4985                	li	s3,1
    5020123c:	b53d                	j	5020106a <main+0x38>

000000005020123e <bios_putstr>:
    5020123e:	520007b7          	lui	a5,0x52000
    50201242:	f0078793          	addi	a5,a5,-256 # 51ffff00 <__BSS_END__+0x1dfe270>
    50201246:	639c                	ld	a5,0(a5)
    50201248:	4701                	li	a4,0
    5020124a:	4681                	li	a3,0
    5020124c:	4601                	li	a2,0
    5020124e:	4581                	li	a1,0
    50201250:	8782                	jr	a5

0000000050201252 <port_write_ch>:
    50201252:	50150337          	lui	t1,0x50150
    50201256:	4885                	li	a7,1
    50201258:	4801                	li	a6,0
    5020125a:	4781                	li	a5,0
    5020125c:	4701                	li	a4,0
    5020125e:	4681                	li	a3,0
    50201260:	4601                	li	a2,0
    50201262:	4581                	li	a1,0
    50201264:	8302                	jr	t1

0000000050201266 <port_write>:
    50201266:	50150337          	lui	t1,0x50150
    5020126a:	48a5                	li	a7,9
    5020126c:	4801                	li	a6,0
    5020126e:	4781                	li	a5,0
    50201270:	4701                	li	a4,0
    50201272:	4681                	li	a3,0
    50201274:	4601                	li	a2,0
    50201276:	4581                	li	a1,0
    50201278:	8302                	jr	t1

000000005020127a <port_read_ch>:
    5020127a:	1141                	addi	sp,sp,-16
    5020127c:	e406                	sd	ra,8(sp)
    5020127e:	50150337          	lui	t1,0x50150
    50201282:	4889                	li	a7,2
    50201284:	4801                	li	a6,0
    50201286:	4781                	li	a5,0
    50201288:	4701                	li	a4,0
    5020128a:	4681                	li	a3,0
    5020128c:	4601                	li	a2,0
    5020128e:	4581                	li	a1,0
    50201290:	4501                	li	a0,0
    50201292:	9302                	jalr	t1
    50201294:	60a2                	ld	ra,8(sp)
    50201296:	2501                	sext.w	a0,a0
    50201298:	0141                	addi	sp,sp,16
    5020129a:	8082                	ret

000000005020129c <sd_read>:
    5020129c:	1141                	addi	sp,sp,-16
    5020129e:	1502                	slli	a0,a0,0x20
    502012a0:	1582                	slli	a1,a1,0x20
    502012a2:	1602                	slli	a2,a2,0x20
    502012a4:	e406                	sd	ra,8(sp)
    502012a6:	9101                	srli	a0,a0,0x20
    502012a8:	9181                	srli	a1,a1,0x20
    502012aa:	9201                	srli	a2,a2,0x20
    502012ac:	50150337          	lui	t1,0x50150
    502012b0:	48ad                	li	a7,11
    502012b2:	4801                	li	a6,0
    502012b4:	4781                	li	a5,0
    502012b6:	4701                	li	a4,0
    502012b8:	4681                	li	a3,0
    502012ba:	9302                	jalr	t1
    502012bc:	60a2                	ld	ra,8(sp)
    502012be:	2501                	sext.w	a0,a0
    502012c0:	0141                	addi	sp,sp,16
    502012c2:	8082                	ret

00000000502012c4 <sd_write>:
    502012c4:	1141                	addi	sp,sp,-16
    502012c6:	1502                	slli	a0,a0,0x20
    502012c8:	1582                	slli	a1,a1,0x20
    502012ca:	1602                	slli	a2,a2,0x20
    502012cc:	e406                	sd	ra,8(sp)
    502012ce:	9101                	srli	a0,a0,0x20
    502012d0:	9181                	srli	a1,a1,0x20
    502012d2:	9201                	srli	a2,a2,0x20
    502012d4:	50150337          	lui	t1,0x50150
    502012d8:	48a9                	li	a7,10
    502012da:	4801                	li	a6,0
    502012dc:	4781                	li	a5,0
    502012de:	4701                	li	a4,0
    502012e0:	4681                	li	a3,0
    502012e2:	9302                	jalr	t1
    502012e4:	60a2                	ld	ra,8(sp)
    502012e6:	2501                	sext.w	a0,a0
    502012e8:	0141                	addi	sp,sp,16
    502012ea:	8082                	ret

00000000502012ec <list_user_tasks>:
    502012ec:	1101                	addi	sp,sp,-32
    502012ee:	e426                	sd	s1,8(sp)
    502012f0:	520004b7          	lui	s1,0x52000
    502012f4:	f004b783          	ld	a5,-256(s1) # 51ffff00 <__BSS_END__+0x1dfe270>
    502012f8:	e822                	sd	s0,16(sp)
    502012fa:	e04a                	sd	s2,0(sp)
    502012fc:	ec06                	sd	ra,24(sp)
    502012fe:	4701                	li	a4,0
    50201300:	4681                	li	a3,0
    50201302:	4601                	li	a2,0
    50201304:	4581                	li	a1,0
    50201306:	00000517          	auipc	a0,0x0
    5020130a:	42250513          	addi	a0,a0,1058 # 50201728 <strcat+0xae>
    5020130e:	f0048493          	addi	s1,s1,-256
    50201312:	9782                	jalr	a5
    50201314:	00000417          	auipc	s0,0x0
    50201318:	7fc40413          	addi	s0,s0,2044 # 50201b10 <tasks>
    5020131c:	00001917          	auipc	s2,0x1
    50201320:	97490913          	addi	s2,s2,-1676 # 50201c90 <__BSS_END__>
    50201324:	8522                	mv	a0,s0
    50201326:	26a000ef          	jal	50201590 <strlen>
    5020132a:	87aa                	mv	a5,a0
    5020132c:	4701                	li	a4,0
    5020132e:	4681                	li	a3,0
    50201330:	4601                	li	a2,0
    50201332:	4581                	li	a1,0
    50201334:	8522                	mv	a0,s0
    50201336:	00f05e63          	blez	a5,50201352 <list_user_tasks+0x66>
    5020133a:	609c                	ld	a5,0(s1)
    5020133c:	9782                	jalr	a5
    5020133e:	609c                	ld	a5,0(s1)
    50201340:	4701                	li	a4,0
    50201342:	4681                	li	a3,0
    50201344:	4601                	li	a2,0
    50201346:	4581                	li	a1,0
    50201348:	00000517          	auipc	a0,0x0
    5020134c:	3f850513          	addi	a0,a0,1016 # 50201740 <strcat+0xc6>
    50201350:	9782                	jalr	a5
    50201352:	0461                	addi	s0,s0,24
    50201354:	fd2418e3          	bne	s0,s2,50201324 <list_user_tasks+0x38>
    50201358:	60e2                	ld	ra,24(sp)
    5020135a:	6442                	ld	s0,16(sp)
    5020135c:	64a2                	ld	s1,8(sp)
    5020135e:	6902                	ld	s2,0(sp)
    50201360:	6105                	addi	sp,sp,32
    50201362:	8082                	ret

0000000050201364 <load_task_img>:
    50201364:	7179                	addi	sp,sp,-48
    50201366:	00000597          	auipc	a1,0x0
    5020136a:	3e258593          	addi	a1,a1,994 # 50201748 <strcat+0xce>
    5020136e:	e84a                	sd	s2,16(sp)
    50201370:	f406                	sd	ra,40(sp)
    50201372:	892a                	mv	s2,a0
    50201374:	23a000ef          	jal	502015ae <strcmp>
    50201378:	c545                	beqz	a0,50201420 <load_task_img+0xbc>
    5020137a:	00000597          	auipc	a1,0x0
    5020137e:	3d658593          	addi	a1,a1,982 # 50201750 <strcat+0xd6>
    50201382:	854a                	mv	a0,s2
    50201384:	22a000ef          	jal	502015ae <strcmp>
    50201388:	c949                	beqz	a0,5020141a <load_task_img+0xb6>
    5020138a:	854a                	mv	a0,s2
    5020138c:	204000ef          	jal	50201590 <strlen>
    50201390:	0e050d63          	beqz	a0,5020148a <load_task_img+0x126>
    50201394:	f022                	sd	s0,32(sp)
    50201396:	ec26                	sd	s1,24(sp)
    50201398:	e44e                	sd	s3,8(sp)
    5020139a:	00000497          	auipc	s1,0x0
    5020139e:	77648493          	addi	s1,s1,1910 # 50201b10 <tasks>
    502013a2:	4401                	li	s0,0
    502013a4:	49c1                	li	s3,16
    502013a6:	85a6                	mv	a1,s1
    502013a8:	854a                	mv	a0,s2
    502013aa:	204000ef          	jal	502015ae <strcmp>
    502013ae:	cd25                	beqz	a0,50201426 <load_task_img+0xc2>
    502013b0:	2405                	addiw	s0,s0,1
    502013b2:	04e1                	addi	s1,s1,24
    502013b4:	ff3419e3          	bne	s0,s3,502013a6 <load_task_img+0x42>
    502013b8:	520004b7          	lui	s1,0x52000
    502013bc:	f084b783          	ld	a5,-248(s1) # 51ffff08 <__BSS_END__+0x1dfe278>
    502013c0:	4701                	li	a4,0
    502013c2:	4681                	li	a3,0
    502013c4:	4601                	li	a2,0
    502013c6:	4581                	li	a1,0
    502013c8:	4529                	li	a0,10
    502013ca:	00000917          	auipc	s2,0x0
    502013ce:	3be90913          	addi	s2,s2,958 # 50201788 <strcat+0x10e>
    502013d2:	f0848493          	addi	s1,s1,-248
    502013d6:	9782                	jalr	a5
    502013d8:	844a                	mv	s0,s2
    502013da:	a021                	j	502013e2 <load_task_img+0x7e>
    502013dc:	fff44503          	lbu	a0,-1(s0)
    502013e0:	9802                	jalr	a6
    502013e2:	00000517          	auipc	a0,0x0
    502013e6:	3a650513          	addi	a0,a0,934 # 50201788 <strcat+0x10e>
    502013ea:	1a6000ef          	jal	50201590 <strlen>
    502013ee:	0405                	addi	s0,s0,1
    502013f0:	412407bb          	subw	a5,s0,s2
    502013f4:	37fd                	addiw	a5,a5,-1
    502013f6:	0004b803          	ld	a6,0(s1)
    502013fa:	4701                	li	a4,0
    502013fc:	4681                	li	a3,0
    502013fe:	4601                	li	a2,0
    50201400:	4581                	li	a1,0
    50201402:	fca7cde3          	blt	a5,a0,502013dc <load_task_img+0x78>
    50201406:	4529                	li	a0,10
    50201408:	9802                	jalr	a6
    5020140a:	7402                	ld	s0,32(sp)
    5020140c:	64e2                	ld	s1,24(sp)
    5020140e:	69a2                	ld	s3,8(sp)
    50201410:	70a2                	ld	ra,40(sp)
    50201412:	6942                	ld	s2,16(sp)
    50201414:	4501                	li	a0,0
    50201416:	6145                	addi	sp,sp,48
    50201418:	8082                	ret
    5020141a:	ed3ff0ef          	jal	502012ec <list_user_tasks>
    5020141e:	bfcd                	j	50201410 <load_task_img+0xac>
    50201420:	088000ef          	jal	502014a8 <batch_process>
    50201424:	b7f5                	j	50201410 <load_task_img+0xac>
    50201426:	00141793          	slli	a5,s0,0x1
    5020142a:	97a2                	add	a5,a5,s0
    5020142c:	078e                	slli	a5,a5,0x3
    5020142e:	00000717          	auipc	a4,0x0
    50201432:	6e270713          	addi	a4,a4,1762 # 50201b10 <tasks>
    50201436:	00f70933          	add	s2,a4,a5
    5020143a:	01092703          	lw	a4,16(s2)
    5020143e:	520007b7          	lui	a5,0x52000
    50201442:	f1878793          	addi	a5,a5,-232 # 51ffff18 <__BSS_END__+0x1dfe288>
    50201446:	41f7549b          	sraiw	s1,a4,0x1f
    5020144a:	0174d49b          	srliw	s1,s1,0x17
    5020144e:	9cb9                	addw	s1,s1,a4
    50201450:	01496583          	lwu	a1,20(s2)
    50201454:	4094d49b          	sraiw	s1,s1,0x9
    50201458:	52000737          	lui	a4,0x52000
    5020145c:	639c                	ld	a5,0(a5)
    5020145e:	0442                	slli	s0,s0,0x10
    50201460:	9c39                	addw	s0,s0,a4
    50201462:	02049613          	slli	a2,s1,0x20
    50201466:	8522                	mv	a0,s0
    50201468:	9201                	srli	a2,a2,0x20
    5020146a:	4701                	li	a4,0
    5020146c:	4681                	li	a3,0
    5020146e:	9782                	jalr	a5
    50201470:	01092503          	lw	a0,16(s2)
    50201474:	0094949b          	slliw	s1,s1,0x9
    50201478:	70a2                	ld	ra,40(sp)
    5020147a:	9d05                	subw	a0,a0,s1
    5020147c:	9522                	add	a0,a0,s0
    5020147e:	7402                	ld	s0,32(sp)
    50201480:	64e2                	ld	s1,24(sp)
    50201482:	69a2                	ld	s3,8(sp)
    50201484:	6942                	ld	s2,16(sp)
    50201486:	6145                	addi	sp,sp,48
    50201488:	8082                	ret
    5020148a:	520007b7          	lui	a5,0x52000
    5020148e:	f0078793          	addi	a5,a5,-256 # 51ffff00 <__BSS_END__+0x1dfe270>
    50201492:	639c                	ld	a5,0(a5)
    50201494:	4701                	li	a4,0
    50201496:	4681                	li	a3,0
    50201498:	4601                	li	a2,0
    5020149a:	4581                	li	a1,0
    5020149c:	00000517          	auipc	a0,0x0
    502014a0:	2bc50513          	addi	a0,a0,700 # 50201758 <strcat+0xde>
    502014a4:	9782                	jalr	a5
    502014a6:	b7ad                	j	50201410 <load_task_img+0xac>

00000000502014a8 <batch_process>:
    502014a8:	7139                	addi	sp,sp,-64
    502014aa:	f426                	sd	s1,40(sp)
    502014ac:	f04a                	sd	s2,32(sp)
    502014ae:	540007b7          	lui	a5,0x54000
    502014b2:	fc06                	sd	ra,56(sp)
    502014b4:	f822                	sd	s0,48(sp)
    502014b6:	c388                	sw	a0,0(a5)
    502014b8:	00000797          	auipc	a5,0x0
    502014bc:	30078793          	addi	a5,a5,768 # 502017b8 <strcat+0x13e>
    502014c0:	e03e                	sd	a5,0(sp)
    502014c2:	00000797          	auipc	a5,0x0
    502014c6:	2fe78793          	addi	a5,a5,766 # 502017c0 <strcat+0x146>
    502014ca:	e43e                	sd	a5,8(sp)
    502014cc:	00000797          	auipc	a5,0x0
    502014d0:	2fc78793          	addi	a5,a5,764 # 502017c8 <strcat+0x14e>
    502014d4:	e83e                	sd	a5,16(sp)
    502014d6:	52000937          	lui	s2,0x52000
    502014da:	00000797          	auipc	a5,0x0
    502014de:	2f678793          	addi	a5,a5,758 # 502017d0 <strcat+0x156>
    502014e2:	ec3e                	sd	a5,24(sp)
    502014e4:	f0090913          	addi	s2,s2,-256 # 51ffff00 <__BSS_END__+0x1dfe270>
    502014e8:	848a                	mv	s1,sp
    502014ea:	6088                	ld	a0,0(s1)
    502014ec:	e79ff0ef          	jal	50201364 <load_task_img>
    502014f0:	00093783          	ld	a5,0(s2)
    502014f4:	842a                	mv	s0,a0
    502014f6:	4701                	li	a4,0
    502014f8:	4681                	li	a3,0
    502014fa:	4601                	li	a2,0
    502014fc:	4581                	li	a1,0
    502014fe:	00000517          	auipc	a0,0x0
    50201502:	1da50513          	addi	a0,a0,474 # 502016d8 <strcat+0x5e>
    50201506:	9782                	jalr	a5
    50201508:	c41d                	beqz	s0,50201536 <batch_process+0x8e>
    5020150a:	9402                	jalr	s0
    5020150c:	00093783          	ld	a5,0(s2)
    50201510:	4701                	li	a4,0
    50201512:	4681                	li	a3,0
    50201514:	4601                	li	a2,0
    50201516:	4581                	li	a1,0
    50201518:	00000517          	auipc	a0,0x0
    5020151c:	2c050513          	addi	a0,a0,704 # 502017d8 <strcat+0x15e>
    50201520:	9782                	jalr	a5
    50201522:	04a1                	addi	s1,s1,8
    50201524:	101c                	addi	a5,sp,32
    50201526:	fcf492e3          	bne	s1,a5,502014ea <batch_process+0x42>
    5020152a:	70e2                	ld	ra,56(sp)
    5020152c:	7442                	ld	s0,48(sp)
    5020152e:	74a2                	ld	s1,40(sp)
    50201530:	7902                	ld	s2,32(sp)
    50201532:	6121                	addi	sp,sp,64
    50201534:	8082                	ret
    50201536:	00093783          	ld	a5,0(s2)
    5020153a:	4701                	li	a4,0
    5020153c:	4681                	li	a3,0
    5020153e:	4601                	li	a2,0
    50201540:	4581                	li	a1,0
    50201542:	00000517          	auipc	a0,0x0
    50201546:	2ae50513          	addi	a0,a0,686 # 502017f0 <strcat+0x176>
    5020154a:	9782                	jalr	a5
    5020154c:	bfd9                	j	50201522 <batch_process+0x7a>

000000005020154e <memcpy>:
    5020154e:	ce01                	beqz	a2,50201566 <memcpy+0x18>
    50201550:	1602                	slli	a2,a2,0x20
    50201552:	9201                	srli	a2,a2,0x20
    50201554:	962a                	add	a2,a2,a0
    50201556:	0005c783          	lbu	a5,0(a1)
    5020155a:	0505                	addi	a0,a0,1
    5020155c:	0585                	addi	a1,a1,1
    5020155e:	fef50fa3          	sb	a5,-1(a0)
    50201562:	fec51ae3          	bne	a0,a2,50201556 <memcpy+0x8>
    50201566:	8082                	ret

0000000050201568 <memset>:
    50201568:	ca09                	beqz	a2,5020157a <memset+0x12>
    5020156a:	1602                	slli	a2,a2,0x20
    5020156c:	9201                	srli	a2,a2,0x20
    5020156e:	962a                	add	a2,a2,a0
    50201570:	0505                	addi	a0,a0,1
    50201572:	feb50fa3          	sb	a1,-1(a0)
    50201576:	fec51de3          	bne	a0,a2,50201570 <memset+0x8>
    5020157a:	8082                	ret

000000005020157c <bzero>:
    5020157c:	c989                	beqz	a1,5020158e <bzero+0x12>
    5020157e:	1582                	slli	a1,a1,0x20
    50201580:	9181                	srli	a1,a1,0x20
    50201582:	95aa                	add	a1,a1,a0
    50201584:	0505                	addi	a0,a0,1
    50201586:	fe050fa3          	sb	zero,-1(a0)
    5020158a:	feb51de3          	bne	a0,a1,50201584 <bzero+0x8>
    5020158e:	8082                	ret

0000000050201590 <strlen>:
    50201590:	00054783          	lbu	a5,0(a0)
    50201594:	cb99                	beqz	a5,502015aa <strlen+0x1a>
    50201596:	00150793          	addi	a5,a0,1
    5020159a:	86be                	mv	a3,a5
    5020159c:	0007c703          	lbu	a4,0(a5)
    502015a0:	0785                	addi	a5,a5,1
    502015a2:	ff65                	bnez	a4,5020159a <strlen+0xa>
    502015a4:	40a6853b          	subw	a0,a3,a0
    502015a8:	8082                	ret
    502015aa:	4501                	li	a0,0
    502015ac:	8082                	ret

00000000502015ae <strcmp>:
    502015ae:	00054703          	lbu	a4,0(a0)
    502015b2:	eb01                	bnez	a4,502015c2 <strcmp+0x14>
    502015b4:	a025                	j	502015dc <strcmp+0x2e>
    502015b6:	00e79b63          	bne	a5,a4,502015cc <strcmp+0x1e>
    502015ba:	00054703          	lbu	a4,0(a0)
    502015be:	cb11                	beqz	a4,502015d2 <strcmp+0x24>
    502015c0:	0585                	addi	a1,a1,1
    502015c2:	0005c783          	lbu	a5,0(a1)
    502015c6:	0505                	addi	a0,a0,1
    502015c8:	f7fd                	bnez	a5,502015b6 <strcmp+0x8>
    502015ca:	2701                	sext.w	a4,a4
    502015cc:	40f7053b          	subw	a0,a4,a5
    502015d0:	8082                	ret
    502015d2:	0015c783          	lbu	a5,1(a1)
    502015d6:	40f7053b          	subw	a0,a4,a5
    502015da:	8082                	ret
    502015dc:	0005c783          	lbu	a5,0(a1)
    502015e0:	b7f5                	j	502015cc <strcmp+0x1e>

00000000502015e2 <strncmp>:
    502015e2:	c21d                	beqz	a2,50201608 <strncmp+0x26>
    502015e4:	1602                	slli	a2,a2,0x20
    502015e6:	9201                	srli	a2,a2,0x20
    502015e8:	962a                	add	a2,a2,a0
    502015ea:	a031                	j	502015f6 <strncmp+0x14>
    502015ec:	0585                	addi	a1,a1,1
    502015ee:	00e79f63          	bne	a5,a4,5020160c <strncmp+0x2a>
    502015f2:	00c50b63          	beq	a0,a2,50201608 <strncmp+0x26>
    502015f6:	00054783          	lbu	a5,0(a0)
    502015fa:	0005c703          	lbu	a4,0(a1)
    502015fe:	0505                	addi	a0,a0,1
    50201600:	f7f5                	bnez	a5,502015ec <strncmp+0xa>
    50201602:	4501                	li	a0,0
    50201604:	9d19                	subw	a0,a0,a4
    50201606:	8082                	ret
    50201608:	4501                	li	a0,0
    5020160a:	8082                	ret
    5020160c:	0007851b          	sext.w	a0,a5
    50201610:	9d19                	subw	a0,a0,a4
    50201612:	8082                	ret

0000000050201614 <strcpy>:
    50201614:	0005c783          	lbu	a5,0(a1)
    50201618:	872a                	mv	a4,a0
    5020161a:	cb81                	beqz	a5,5020162a <strcpy+0x16>
    5020161c:	0585                	addi	a1,a1,1
    5020161e:	00f70023          	sb	a5,0(a4) # 52000000 <__BSS_END__+0x1dfe370>
    50201622:	0005c783          	lbu	a5,0(a1)
    50201626:	0705                	addi	a4,a4,1
    50201628:	fbf5                	bnez	a5,5020161c <strcpy+0x8>
    5020162a:	00070023          	sb	zero,0(a4)
    5020162e:	8082                	ret

0000000050201630 <strncpy>:
    50201630:	0005c683          	lbu	a3,0(a1)
    50201634:	88b2                	mv	a7,a2
    50201636:	87aa                	mv	a5,a0
    50201638:	c685                	beqz	a3,50201660 <strncpy+0x30>
    5020163a:	fff6081b          	addiw	a6,a2,-1
    5020163e:	0105083b          	addw	a6,a0,a6
    50201642:	9e29                	addw	a2,a2,a0
    50201644:	a039                	j	50201652 <strncpy+0x22>
    50201646:	00d78023          	sb	a3,0(a5)
    5020164a:	0005c683          	lbu	a3,0(a1)
    5020164e:	0785                	addi	a5,a5,1
    50201650:	ca81                	beqz	a3,50201660 <strncpy+0x30>
    50201652:	40f6073b          	subw	a4,a2,a5
    50201656:	0585                	addi	a1,a1,1
    50201658:	40f808bb          	subw	a7,a6,a5
    5020165c:	fee045e3          	bgtz	a4,50201646 <strncpy+0x16>
    50201660:	02089713          	slli	a4,a7,0x20
    50201664:	9301                	srli	a4,a4,0x20
    50201666:	973e                	add	a4,a4,a5
    50201668:	01105863          	blez	a7,50201678 <strncpy+0x48>
    5020166c:	0785                	addi	a5,a5,1
    5020166e:	fe078fa3          	sb	zero,-1(a5)
    50201672:	fef71de3          	bne	a4,a5,5020166c <strncpy+0x3c>
    50201676:	8082                	ret
    50201678:	8082                	ret

000000005020167a <strcat>:
    5020167a:	00054783          	lbu	a5,0(a0)
    5020167e:	c39d                	beqz	a5,502016a4 <strcat+0x2a>
    50201680:	87aa                	mv	a5,a0
    50201682:	0017c703          	lbu	a4,1(a5)
    50201686:	0785                	addi	a5,a5,1
    50201688:	ff6d                	bnez	a4,50201682 <strcat+0x8>
    5020168a:	0005c703          	lbu	a4,0(a1)
    5020168e:	cb01                	beqz	a4,5020169e <strcat+0x24>
    50201690:	0785                	addi	a5,a5,1
    50201692:	0585                	addi	a1,a1,1
    50201694:	fee78fa3          	sb	a4,-1(a5)
    50201698:	0005c703          	lbu	a4,0(a1)
    5020169c:	fb75                	bnez	a4,50201690 <strcat+0x16>
    5020169e:	00078023          	sb	zero,0(a5)
    502016a2:	8082                	ret
    502016a4:	87aa                	mv	a5,a0
    502016a6:	bfcd                	j	50201698 <strcat+0x1e>
