
build/number:     file format elf64-littleriscv


Disassembly of section .text:

0000000052050000 <_start>:
    52050000:	838a                	mv	t2,sp
    52050002:	52500137          	lui	sp,0x52500
    52050006:	1141                	addi	sp,sp,-16 # 524ffff0 <__BSS_END__+0x4afc58>
    52050008:	e01e                	sd	t2,0(sp)
    5205000a:	e406                	sd	ra,8(sp)
    5205000c:	00000297          	auipc	t0,0x0
    52050010:	37c28293          	addi	t0,t0,892 # 52050388 <buf>
    52050014:	00000317          	auipc	t1,0x0
    52050018:	38430313          	addi	t1,t1,900 # 52050398 <__BSS_END__>

000000005205001c <clear_bss>:
    5205001c:	0002a023          	sw	zero,0(t0)
    52050020:	0291                	addi	t0,t0,4
    52050022:	fe62ede3          	bltu	t0,t1,5205001c <clear_bss>
    52050026:	018000ef          	jal	5205003e <main>
    5205002a:	6382                	ld	t2,0(sp)
    5205002c:	60a2                	ld	ra,8(sp)
    5205002e:	0141                	addi	sp,sp,16
    52050030:	811e                	mv	sp,t2
    52050032:	00008067          	ret

0000000052050036 <loop>:
    52050036:	10500073          	wfi
    5205003a:	bff5                	j	52050036 <loop>
    5205003c:	0001                	nop

000000005205003e <main>:
    5205003e:	7139                	addi	sp,sp,-64
    52050040:	4529                	li	a0,10
    52050042:	fc06                	sd	ra,56(sp)
    52050044:	f426                	sd	s1,40(sp)
    52050046:	f04a                	sd	s2,32(sp)
    52050048:	ec4e                	sd	s3,24(sp)
    5205004a:	e852                	sd	s4,16(sp)
    5205004c:	e456                	sd	s5,8(sp)
    5205004e:	e05a                	sd	s6,0(sp)
    52050050:	f822                	sd	s0,48(sp)
    52050052:	0cc000ef          	jal	5205011e <bios_putchar>
    52050056:	00000517          	auipc	a0,0x0
    5205005a:	23250513          	addi	a0,a0,562 # 52050288 <my_atoi+0x82>
    5205005e:	520004b7          	lui	s1,0x52000
    52050062:	52000ab7          	lui	s5,0x52000
    52050066:	0a4000ef          	jal	5205010a <bios_putstr>
    5205006a:	f1048493          	addi	s1,s1,-240 # 51ffff10 <_start-0x500f0>
    5205006e:	f08a8a93          	addi	s5,s5,-248 # 51ffff08 <_start-0x500f8>
    52050072:	4981                	li	s3,0
    52050074:	00000a17          	auipc	s4,0x0
    52050078:	314a0a13          	addi	s4,s4,788 # 52050388 <buf>
    5205007c:	597d                	li	s2,-1
    5205007e:	4b35                	li	s6,13
    52050080:	609c                	ld	a5,0(s1)
    52050082:	4701                	li	a4,0
    52050084:	4681                	li	a3,0
    52050086:	4601                	li	a2,0
    52050088:	4581                	li	a1,0
    5205008a:	4501                	li	a0,0
    5205008c:	9782                	jalr	a5
    5205008e:	842a                	mv	s0,a0
    52050090:	2501                	sext.w	a0,a0
    52050092:	ff2507e3          	beq	a0,s2,52050080 <main+0x42>
    52050096:	4701                	li	a4,0
    52050098:	4681                	li	a3,0
    5205009a:	4601                	li	a2,0
    5205009c:	4581                	li	a1,0
    5205009e:	01650b63          	beq	a0,s6,520500b4 <main+0x76>
    520500a2:	000ab783          	ld	a5,0(s5)
    520500a6:	0985                	addi	s3,s3,1
    520500a8:	9782                	jalr	a5
    520500aa:	013a07b3          	add	a5,s4,s3
    520500ae:	fe878fa3          	sb	s0,-1(a5)
    520500b2:	b7f9                	j	52050080 <main+0x42>
    520500b4:	4529                	li	a0,10
    520500b6:	068000ef          	jal	5205011e <bios_putchar>
    520500ba:	2981                	sext.w	s3,s3
    520500bc:	9a4e                	add	s4,s4,s3
    520500be:	00000517          	auipc	a0,0x0
    520500c2:	2ca50513          	addi	a0,a0,714 # 52050388 <buf>
    520500c6:	000a0023          	sb	zero,0(s4)
    520500ca:	13c000ef          	jal	52050206 <my_atoi>
    520500ce:	842a                	mv	s0,a0
    520500d0:	00000517          	auipc	a0,0x0
    520500d4:	1d050513          	addi	a0,a0,464 # 520502a0 <my_atoi+0x9a>
    520500d8:	032000ef          	jal	5205010a <bios_putstr>
    520500dc:	00000517          	auipc	a0,0x0
    520500e0:	2ac50513          	addi	a0,a0,684 # 52050388 <buf>
    520500e4:	026000ef          	jal	5205010a <bios_putstr>
    520500e8:	4529                	li	a0,10
    520500ea:	034000ef          	jal	5205011e <bios_putchar>
    520500ee:	540007b7          	lui	a5,0x54000
    520500f2:	70e2                	ld	ra,56(sp)
    520500f4:	c380                	sw	s0,0(a5)
    520500f6:	7442                	ld	s0,48(sp)
    520500f8:	74a2                	ld	s1,40(sp)
    520500fa:	7902                	ld	s2,32(sp)
    520500fc:	69e2                	ld	s3,24(sp)
    520500fe:	6a42                	ld	s4,16(sp)
    52050100:	6aa2                	ld	s5,8(sp)
    52050102:	6b02                	ld	s6,0(sp)
    52050104:	4501                	li	a0,0
    52050106:	6121                	addi	sp,sp,64
    52050108:	8082                	ret

000000005205010a <bios_putstr>:
    5205010a:	520007b7          	lui	a5,0x52000
    5205010e:	f0078793          	addi	a5,a5,-256 # 51ffff00 <_start-0x50100>
    52050112:	639c                	ld	a5,0(a5)
    52050114:	4701                	li	a4,0
    52050116:	4681                	li	a3,0
    52050118:	4601                	li	a2,0
    5205011a:	4581                	li	a1,0
    5205011c:	8782                	jr	a5

000000005205011e <bios_putchar>:
    5205011e:	520007b7          	lui	a5,0x52000
    52050122:	f0878793          	addi	a5,a5,-248 # 51ffff08 <_start-0x500f8>
    52050126:	639c                	ld	a5,0(a5)
    52050128:	4701                	li	a4,0
    5205012a:	4681                	li	a3,0
    5205012c:	4601                	li	a2,0
    5205012e:	4581                	li	a1,0
    52050130:	8782                	jr	a5

0000000052050132 <my_itoa>:
    52050132:	4841                	li	a6,16
    52050134:	0cb86763          	bltu	a6,a1,52050202 <my_itoa+0xd0>
    52050138:	0c055363          	bgez	a0,520501fe <my_itoa+0xcc>
    5205013c:	e2e9                	bnez	a3,520501fe <my_itoa+0xcc>
    5205013e:	40a00533          	neg	a0,a0
    52050142:	4305                	li	t1,1
    52050144:	06100893          	li	a7,97
    52050148:	c219                	beqz	a2,5205014e <my_itoa+0x1c>
    5205014a:	04100893          	li	a7,65
    5205014e:	1582                	slli	a1,a1,0x20
    52050150:	9181                	srli	a1,a1,0x20
    52050152:	38d9                	addiw	a7,a7,-10
    52050154:	863a                	mv	a2,a4
    52050156:	4825                	li	a6,9
    52050158:	a811                	j	5205016c <my_itoa+0x3a>
    5205015a:	02b54533          	div	a0,a0,a1
    5205015e:	0306869b          	addiw	a3,a3,48
    52050162:	00d60023          	sb	a3,0(a2)
    52050166:	0605                	addi	a2,a2,1
    52050168:	00a05f63          	blez	a0,52050186 <my_itoa+0x54>
    5205016c:	02b566b3          	rem	a3,a0,a1
    52050170:	fed855e3          	bge	a6,a3,5205015a <my_itoa+0x28>
    52050174:	02b54533          	div	a0,a0,a1
    52050178:	00d886bb          	addw	a3,a7,a3
    5205017c:	00d60023          	sb	a3,0(a2)
    52050180:	0605                	addi	a2,a2,1
    52050182:	fea045e3          	bgtz	a0,5205016c <my_itoa+0x3a>
    52050186:	40e606bb          	subw	a3,a2,a4
    5205018a:	02f6f463          	bgeu	a3,a5,520501b2 <my_itoa+0x80>
    5205018e:	fff7859b          	addiw	a1,a5,-1
    52050192:	9d95                	subw	a1,a1,a3
    52050194:	1582                	slli	a1,a1,0x20
    52050196:	9181                	srli	a1,a1,0x20
    52050198:	00158693          	addi	a3,a1,1
    5205019c:	87b2                	mv	a5,a2
    5205019e:	03000513          	li	a0,48
    520501a2:	96b2                	add	a3,a3,a2
    520501a4:	0785                	addi	a5,a5,1
    520501a6:	fea78fa3          	sb	a0,-1(a5)
    520501aa:	fed79de3          	bne	a5,a3,520501a4 <my_itoa+0x72>
    520501ae:	0605                	addi	a2,a2,1
    520501b0:	962e                	add	a2,a2,a1
    520501b2:	00030763          	beqz	t1,520501c0 <my_itoa+0x8e>
    520501b6:	02d00793          	li	a5,45
    520501ba:	00f60023          	sb	a5,0(a2)
    520501be:	0605                	addi	a2,a2,1
    520501c0:	40e6053b          	subw	a0,a2,a4
    520501c4:	00060023          	sb	zero,0(a2)
    520501c8:	0015589b          	srliw	a7,a0,0x1
    520501cc:	02088c63          	beqz	a7,52050204 <my_itoa+0xd2>
    520501d0:	fff7081b          	addiw	a6,a4,-1
    520501d4:	98ba                	add	a7,a7,a4
    520501d6:	00a8083b          	addw	a6,a6,a0
    520501da:	86ba                	mv	a3,a4
    520501dc:	40d807bb          	subw	a5,a6,a3
    520501e0:	1782                	slli	a5,a5,0x20
    520501e2:	9381                	srli	a5,a5,0x20
    520501e4:	97ba                	add	a5,a5,a4
    520501e6:	0007c583          	lbu	a1,0(a5)
    520501ea:	0006c603          	lbu	a2,0(a3)
    520501ee:	0685                	addi	a3,a3,1
    520501f0:	feb68fa3          	sb	a1,-1(a3)
    520501f4:	00c78023          	sb	a2,0(a5)
    520501f8:	ff1692e3          	bne	a3,a7,520501dc <my_itoa+0xaa>
    520501fc:	8082                	ret
    520501fe:	4301                	li	t1,0
    52050200:	b791                	j	52050144 <my_itoa+0x12>
    52050202:	4501                	li	a0,0
    52050204:	8082                	ret

0000000052050206 <my_atoi>:
    52050206:	00054783          	lbu	a5,0(a0)
    5205020a:	02000713          	li	a4,32
    5205020e:	00e79763          	bne	a5,a4,5205021c <my_atoi+0x16>
    52050212:	00154783          	lbu	a5,1(a0)
    52050216:	0505                	addi	a0,a0,1
    52050218:	fee78de3          	beq	a5,a4,52050212 <my_atoi+0xc>
    5205021c:	02d00713          	li	a4,45
    52050220:	06e78163          	beq	a5,a4,52050282 <my_atoi+0x7c>
    52050224:	02b00713          	li	a4,43
    52050228:	4805                	li	a6,1
    5205022a:	02e78f63          	beq	a5,a4,52050268 <my_atoi+0x62>
    5205022e:	00054603          	lbu	a2,0(a0)
    52050232:	45a5                	li	a1,9
    52050234:	4701                	li	a4,0
    52050236:	fd06069b          	addiw	a3,a2,-48
    5205023a:	0ff6f793          	zext.b	a5,a3
    5205023e:	04f5e063          	bltu	a1,a5,5205027e <my_atoi+0x78>
    52050242:	0027179b          	slliw	a5,a4,0x2
    52050246:	00154603          	lbu	a2,1(a0)
    5205024a:	9fb9                	addw	a5,a5,a4
    5205024c:	0017979b          	slliw	a5,a5,0x1
    52050250:	00f6873b          	addw	a4,a3,a5
    52050254:	fd06069b          	addiw	a3,a2,-48
    52050258:	0ff6f793          	zext.b	a5,a3
    5205025c:	0505                	addi	a0,a0,1
    5205025e:	fef5f2e3          	bgeu	a1,a5,52050242 <my_atoi+0x3c>
    52050262:	0307053b          	mulw	a0,a4,a6
    52050266:	8082                	ret
    52050268:	9542                	add	a0,a0,a6
    5205026a:	00054603          	lbu	a2,0(a0)
    5205026e:	45a5                	li	a1,9
    52050270:	4701                	li	a4,0
    52050272:	fd06069b          	addiw	a3,a2,-48
    52050276:	0ff6f793          	zext.b	a5,a3
    5205027a:	fcf5f4e3          	bgeu	a1,a5,52050242 <my_atoi+0x3c>
    5205027e:	4501                	li	a0,0
    52050280:	8082                	ret
    52050282:	0505                	addi	a0,a0,1
    52050284:	587d                	li	a6,-1
    52050286:	b765                	j	5205022e <my_atoi+0x28>
